	.section	__TEXT,__text,regular,pure_instructions
	.build_version macos, 11, 0	sdk_version 11, 3
	.globl	_lu_solve                       ## -- Begin function lu_solve
	.p2align	4, 0x90
_lu_solve:                              ## @lu_solve
	.cfi_startproc
## %bb.0:
	pushq	%rbp
	.cfi_def_cfa_offset 16
	.cfi_offset %rbp, -16
	movq	%rsp, %rbp
	.cfi_def_cfa_register %rbp
	subq	$32, %rsp
	movl	%edi, -4(%rbp)
	movq	%rsi, -16(%rbp)
	movq	%rdx, -24(%rbp)
	movl	-4(%rbp), %edi
	movq	-16(%rbp), %rsi
	movq	-24(%rbp), %rdx
	callq	_lu_solve_6
	addq	$32, %rsp
	popq	%rbp
	retq
	.cfi_endproc
                                        ## -- End function
	.section	__TEXT,__literal8,8byte_literals
	.p2align	3                               ## -- Begin function lu_solve_6
LCPI1_0:
	.quad	0xbff0000000000000              ## double -1
LCPI1_1:
	.quad	0x3ff0000000000000              ## double 1
	.section	__TEXT,__text,regular,pure_instructions
	.globl	_lu_solve_6
	.p2align	4, 0x90
_lu_solve_6:                            ## @lu_solve_6
	.cfi_startproc
## %bb.0:
	pushq	%rbp
	.cfi_def_cfa_offset 16
	.cfi_offset %rbp, -16
	movq	%rsp, %rbp
	.cfi_def_cfa_register %rbp
	pushq	%r14
	pushq	%rbx
	andq	$-32, %rsp
	subq	$800, %rsp                      ## imm = 0x320
	.cfi_offset %rbx, -32
	.cfi_offset %r14, -24
	movl	%edi, 268(%rsp)
	movq	%rsi, 256(%rsp)
	movq	%rdx, 248(%rsp)
	movq	_scratch_ipiv(%rip), %rax
	movq	%rax, 224(%rsp)
	movl	268(%rsp), %ecx
	movl	268(%rsp), %edi
	movl	%ecx, 280(%rsp)
	movl	%edi, 276(%rsp)
	movl	$64, 220(%rsp)
	movl	268(%rsp), %ecx
	movl	%ecx, 216(%rsp)
	movl	268(%rsp), %ecx
	movl	%ecx, 212(%rsp)
	movl	268(%rsp), %ecx
	movl	%ecx, 208(%rsp)
	cmpl	$1, 220(%rsp)
	jle	LBB1_2
## %bb.1:
	movl	220(%rsp), %eax
	cmpl	208(%rsp), %eax
	jl	LBB1_5
LBB1_2:
	movl	216(%rsp), %edi
	movl	268(%rsp), %esi
	movq	256(%rsp), %rdx
	movl	212(%rsp), %ecx
	movq	224(%rsp), %r8
	callq	_dgetf2_6
	movl	%eax, 244(%rsp)
	cmpl	$0, 244(%rsp)
	je	LBB1_4
## %bb.3:
	movl	244(%rsp), %eax
	movl	%eax, 272(%rsp)
	jmp	LBB1_39
LBB1_4:
	jmp	LBB1_38
LBB1_5:
	movl	$0, 240(%rsp)
LBB1_6:                                 ## =>This Loop Header: Depth=1
                                        ##     Child Loop BB1_13 Depth 2
                                        ##     Child Loop BB1_20 Depth 2
                                        ##     Child Loop BB1_27 Depth 2
	movl	240(%rsp), %eax
	cmpl	208(%rsp), %eax
	jge	LBB1_37
## %bb.7:                               ##   in Loop: Header=BB1_6 Depth=1
	movl	208(%rsp), %eax
	subl	240(%rsp), %eax
	cmpl	220(%rsp), %eax
	jge	LBB1_9
## %bb.8:                               ##   in Loop: Header=BB1_6 Depth=1
	movl	208(%rsp), %eax
	subl	240(%rsp), %eax
	movl	%eax, 92(%rsp)                  ## 4-byte Spill
	jmp	LBB1_10
LBB1_9:                                 ##   in Loop: Header=BB1_6 Depth=1
	movl	220(%rsp), %eax
	movl	%eax, 92(%rsp)                  ## 4-byte Spill
LBB1_10:                                ##   in Loop: Header=BB1_6 Depth=1
	movl	92(%rsp), %eax                  ## 4-byte Reload
	movl	%eax, 236(%rsp)
	movl	216(%rsp), %eax
	subl	240(%rsp), %eax
	movl	236(%rsp), %esi
	movq	256(%rsp), %rcx
	movl	212(%rsp), %edx
	imull	240(%rsp), %edx
	addl	240(%rsp), %edx
	movslq	%edx, %rdi
	shlq	$3, %rdi
	addq	%rdi, %rcx
	movl	212(%rsp), %edx
	movq	224(%rsp), %rdi
	movslq	240(%rsp), %r8
	shlq	$2, %r8
	addq	%r8, %rdi
	movq	%rdi, 80(%rsp)                  ## 8-byte Spill
	movl	%eax, %edi
	movl	%edx, 76(%rsp)                  ## 4-byte Spill
	movq	%rcx, %rdx
	movl	76(%rsp), %ecx                  ## 4-byte Reload
	movq	80(%rsp), %r8                   ## 8-byte Reload
	callq	_dgetf2_6
	movl	%eax, 244(%rsp)
	cmpl	$0, 244(%rsp)
	je	LBB1_12
## %bb.11:
	movl	244(%rsp), %eax
	movl	%eax, 272(%rsp)
	jmp	LBB1_39
LBB1_12:                                ##   in Loop: Header=BB1_6 Depth=1
	movl	240(%rsp), %eax
	movl	%eax, 284(%rsp)
	movl	284(%rsp), %eax
	movl	%eax, 372(%rsp)
	movl	%eax, 368(%rsp)
	movl	%eax, 364(%rsp)
	movl	%eax, 360(%rsp)
	movl	%eax, 356(%rsp)
	movl	%eax, 352(%rsp)
	movl	%eax, 348(%rsp)
	movl	%eax, 344(%rsp)
	movl	348(%rsp), %eax
	movl	352(%rsp), %ecx
	movl	356(%rsp), %edx
	movl	364(%rsp), %esi
	movl	368(%rsp), %edi
	movl	372(%rsp), %r8d
	vmovd	360(%rsp), %xmm0                ## xmm0 = mem[0],zero,zero,zero
	vpinsrd	$1, %esi, %xmm0, %xmm0
	vpinsrd	$2, %edi, %xmm0, %xmm0
	vpinsrd	$3, %r8d, %xmm0, %xmm0
	vmovd	344(%rsp), %xmm1                ## xmm1 = mem[0],zero,zero,zero
	vpinsrd	$1, %eax, %xmm1, %xmm1
	vpinsrd	$2, %ecx, %xmm1, %xmm1
	vpinsrd	$3, %edx, %xmm1, %xmm1
                                        ## implicit-def: $ymm2
	vmovaps	%xmm1, %xmm2
	vinserti128	$1, %xmm0, %ymm2, %ymm2
	vmovdqa	%ymm2, 288(%rsp)
	vmovdqa	288(%rsp), %ymm2
	vmovdqa	%ymm2, 96(%rsp)
	movl	240(%rsp), %eax
	movl	%eax, 232(%rsp)
LBB1_13:                                ##   Parent Loop BB1_6 Depth=1
                                        ## =>  This Inner Loop Header: Depth=2
	movl	232(%rsp), %eax
	movl	216(%rsp), %ecx
	movl	240(%rsp), %edx
	addl	236(%rsp), %edx
	cmpl	%edx, %ecx
	movl	%eax, 72(%rsp)                  ## 4-byte Spill
	jge	LBB1_15
## %bb.14:                              ##   in Loop: Header=BB1_13 Depth=2
	movl	216(%rsp), %eax
	movl	%eax, 68(%rsp)                  ## 4-byte Spill
	jmp	LBB1_16
LBB1_15:                                ##   in Loop: Header=BB1_13 Depth=2
	movl	240(%rsp), %eax
	addl	236(%rsp), %eax
	movl	%eax, 68(%rsp)                  ## 4-byte Spill
LBB1_16:                                ##   in Loop: Header=BB1_13 Depth=2
	movl	68(%rsp), %eax                  ## 4-byte Reload
	subl	$15, %eax
	movl	72(%rsp), %ecx                  ## 4-byte Reload
	cmpl	%eax, %ecx
	jge	LBB1_19
## %bb.17:                              ##   in Loop: Header=BB1_13 Depth=2
	movq	224(%rsp), %rax
	movslq	232(%rsp), %rcx
	shlq	$2, %rcx
	addq	%rcx, %rax
	movq	%rax, 376(%rsp)
	movq	376(%rsp), %rax
	vmovdqu	(%rax), %ymm0
	vmovdqa	%ymm0, 160(%rsp)
	movq	224(%rsp), %rax
	movslq	232(%rsp), %rcx
	shlq	$2, %rcx
	addq	%rcx, %rax
	vmovdqa	160(%rsp), %ymm0
	vmovdqa	96(%rsp), %ymm1
	vmovdqa	%ymm0, 416(%rsp)
	vmovdqa	%ymm1, 384(%rsp)
	vmovdqa	416(%rsp), %ymm0
	vmovdqa	384(%rsp), %ymm1
	vpaddd	%ymm1, %ymm0, %ymm0
	movq	%rax, 496(%rsp)
	vmovdqa	%ymm0, 448(%rsp)
	vmovdqa	448(%rsp), %ymm0
	movq	496(%rsp), %rax
	vmovdqu	%ymm0, (%rax)
	movq	224(%rsp), %rax
	movslq	232(%rsp), %rcx
	shlq	$2, %rcx
	addq	%rcx, %rax
	addq	$32, %rax
	movq	%rax, 504(%rsp)
	movq	504(%rsp), %rax
	vmovdqu	(%rax), %ymm0
	vmovdqa	%ymm0, 160(%rsp)
	movq	224(%rsp), %rax
	movslq	232(%rsp), %rcx
	shlq	$2, %rcx
	addq	%rcx, %rax
	addq	$32, %rax
	vmovdqa	160(%rsp), %ymm0
	vmovdqa	96(%rsp), %ymm1
	vmovdqa	%ymm0, 768(%rsp)
	vmovdqa	%ymm1, 736(%rsp)
	vmovdqa	768(%rsp), %ymm0
	vmovdqa	736(%rsp), %ymm1
	vpaddd	%ymm1, %ymm0, %ymm0
	movq	%rax, 728(%rsp)
	vmovdqa	%ymm0, 672(%rsp)
	vmovdqa	672(%rsp), %ymm0
	movq	728(%rsp), %rax
	vmovdqu	%ymm0, (%rax)
## %bb.18:                              ##   in Loop: Header=BB1_13 Depth=2
	movl	232(%rsp), %eax
	addl	$16, %eax
	movl	%eax, 232(%rsp)
	jmp	LBB1_13
LBB1_19:                                ##   in Loop: Header=BB1_6 Depth=1
	jmp	LBB1_20
LBB1_20:                                ##   Parent Loop BB1_6 Depth=1
                                        ## =>  This Inner Loop Header: Depth=2
	movl	232(%rsp), %eax
	movl	216(%rsp), %ecx
	movl	240(%rsp), %edx
	addl	236(%rsp), %edx
	cmpl	%edx, %ecx
	movl	%eax, 64(%rsp)                  ## 4-byte Spill
	jge	LBB1_22
## %bb.21:                              ##   in Loop: Header=BB1_20 Depth=2
	movl	216(%rsp), %eax
	movl	%eax, 60(%rsp)                  ## 4-byte Spill
	jmp	LBB1_23
LBB1_22:                                ##   in Loop: Header=BB1_20 Depth=2
	movl	240(%rsp), %eax
	addl	236(%rsp), %eax
	movl	%eax, 60(%rsp)                  ## 4-byte Spill
LBB1_23:                                ##   in Loop: Header=BB1_20 Depth=2
	movl	60(%rsp), %eax                  ## 4-byte Reload
	subl	$7, %eax
	movl	64(%rsp), %ecx                  ## 4-byte Reload
	cmpl	%eax, %ecx
	jge	LBB1_26
## %bb.24:                              ##   in Loop: Header=BB1_20 Depth=2
	movq	224(%rsp), %rax
	movslq	232(%rsp), %rcx
	shlq	$2, %rcx
	addq	%rcx, %rax
	movq	%rax, 664(%rsp)
	movq	664(%rsp), %rax
	vmovdqu	(%rax), %ymm0
	vmovdqa	%ymm0, 160(%rsp)
	movq	224(%rsp), %rax
	movslq	232(%rsp), %rcx
	shlq	$2, %rcx
	addq	%rcx, %rax
	vmovdqa	160(%rsp), %ymm0
	vmovdqa	96(%rsp), %ymm1
	vmovdqa	%ymm0, 608(%rsp)
	vmovdqa	%ymm1, 576(%rsp)
	vmovdqa	608(%rsp), %ymm0
	vmovdqa	576(%rsp), %ymm1
	vpaddd	%ymm1, %ymm0, %ymm0
	movq	%rax, 568(%rsp)
	vmovdqa	%ymm0, 512(%rsp)
	vmovdqa	512(%rsp), %ymm0
	movq	568(%rsp), %rax
	vmovdqu	%ymm0, (%rax)
## %bb.25:                              ##   in Loop: Header=BB1_20 Depth=2
	movl	232(%rsp), %eax
	addl	$8, %eax
	movl	%eax, 232(%rsp)
	jmp	LBB1_20
LBB1_26:                                ##   in Loop: Header=BB1_6 Depth=1
	jmp	LBB1_27
LBB1_27:                                ##   Parent Loop BB1_6 Depth=1
                                        ## =>  This Inner Loop Header: Depth=2
	movl	232(%rsp), %eax
	movl	216(%rsp), %ecx
	movl	240(%rsp), %edx
	addl	236(%rsp), %edx
	cmpl	%edx, %ecx
	movl	%eax, 56(%rsp)                  ## 4-byte Spill
	jge	LBB1_29
## %bb.28:                              ##   in Loop: Header=BB1_27 Depth=2
	movl	216(%rsp), %eax
	movl	%eax, 52(%rsp)                  ## 4-byte Spill
	jmp	LBB1_30
LBB1_29:                                ##   in Loop: Header=BB1_27 Depth=2
	movl	240(%rsp), %eax
	addl	236(%rsp), %eax
	movl	%eax, 52(%rsp)                  ## 4-byte Spill
LBB1_30:                                ##   in Loop: Header=BB1_27 Depth=2
	movl	52(%rsp), %eax                  ## 4-byte Reload
	movl	56(%rsp), %ecx                  ## 4-byte Reload
	cmpl	%eax, %ecx
	jge	LBB1_33
## %bb.31:                              ##   in Loop: Header=BB1_27 Depth=2
	movl	240(%rsp), %eax
	movq	224(%rsp), %rcx
	movl	232(%rsp), %edx
	addl	$0, %edx
	movslq	%edx, %rsi
	addl	(%rcx,%rsi,4), %eax
	movl	%eax, (%rcx,%rsi,4)
## %bb.32:                              ##   in Loop: Header=BB1_27 Depth=2
	movl	232(%rsp), %eax
	addl	$1, %eax
	movl	%eax, 232(%rsp)
	jmp	LBB1_27
LBB1_33:                                ##   in Loop: Header=BB1_6 Depth=1
	movl	240(%rsp), %edi
	movq	256(%rsp), %rsi
	movl	212(%rsp), %edx
	movl	240(%rsp), %ecx
	movl	240(%rsp), %eax
	addl	236(%rsp), %eax
	movq	224(%rsp), %r9
	movl	%eax, %r8d
	movl	$1, (%rsp)
	vzeroupper
	callq	_dlaswp_6
	movl	240(%rsp), %eax
	addl	236(%rsp), %eax
	cmpl	268(%rsp), %eax
	jge	LBB1_35
## %bb.34:                              ##   in Loop: Header=BB1_6 Depth=1
	movl	268(%rsp), %eax
	subl	240(%rsp), %eax
	subl	236(%rsp), %eax
	movq	256(%rsp), %rcx
	movl	212(%rsp), %edx
	movl	240(%rsp), %esi
	addl	236(%rsp), %esi
	imull	%esi, %edx
	addl	$0, %edx
	movslq	%edx, %rdi
	shlq	$3, %rdi
	addq	%rdi, %rcx
	movl	212(%rsp), %edx
	movl	240(%rsp), %esi
	movl	240(%rsp), %r8d
	addl	236(%rsp), %r8d
	movq	224(%rsp), %r9
	movl	%eax, %edi
	movl	%esi, 48(%rsp)                  ## 4-byte Spill
	movq	%rcx, %rsi
	movl	48(%rsp), %ecx                  ## 4-byte Reload
	movl	$1, (%rsp)
	callq	_dlaswp_6
	movl	236(%rsp), %edi
	movl	268(%rsp), %eax
	subl	240(%rsp), %eax
	subl	236(%rsp), %eax
	movq	256(%rsp), %rsi
	movl	212(%rsp), %ecx
	imull	240(%rsp), %ecx
	addl	240(%rsp), %ecx
	movslq	%ecx, %r9
	shlq	$3, %r9
	addq	%r9, %rsi
	movl	212(%rsp), %ecx
	movq	256(%rsp), %r9
	movl	212(%rsp), %edx
	movl	240(%rsp), %r8d
	addl	236(%rsp), %r8d
	imull	%r8d, %edx
	addl	240(%rsp), %edx
	movslq	%edx, %r10
	shlq	$3, %r10
	addq	%r10, %r9
	movl	212(%rsp), %edx
	movq	%rsi, 40(%rsp)                  ## 8-byte Spill
	movl	%eax, %esi
	movq	40(%rsp), %r10                  ## 8-byte Reload
	movl	%edx, 36(%rsp)                  ## 4-byte Spill
	movq	%r10, %rdx
	movq	%r9, %r8
	movl	36(%rsp), %r9d                  ## 4-byte Reload
	callq	_dtrsm_L_6
	vmovsd	LCPI1_0(%rip), %xmm0            ## xmm0 = mem[0],zero
	vmovsd	LCPI1_1(%rip), %xmm1            ## xmm1 = mem[0],zero
	movl	216(%rsp), %eax
	subl	240(%rsp), %eax
	subl	236(%rsp), %eax
	movl	268(%rsp), %ecx
	subl	240(%rsp), %ecx
	subl	236(%rsp), %ecx
	movl	236(%rsp), %edx
	movq	256(%rsp), %r8
	movl	212(%rsp), %esi
	imull	240(%rsp), %esi
	movl	240(%rsp), %edi
	addl	236(%rsp), %edi
	addl	%edi, %esi
	movslq	%esi, %r10
	shlq	$3, %r10
	addq	%r10, %r8
	movl	212(%rsp), %esi
	movq	256(%rsp), %r10
	movl	212(%rsp), %edi
	movl	240(%rsp), %r9d
	addl	236(%rsp), %r9d
	imull	%r9d, %edi
	addl	240(%rsp), %edi
	movslq	%edi, %r11
	shlq	$3, %r11
	addq	%r11, %r10
	movl	212(%rsp), %edi
	movq	256(%rsp), %r11
	movl	212(%rsp), %r9d
	movl	240(%rsp), %ebx
	addl	236(%rsp), %ebx
	imull	%ebx, %r9d
	movl	240(%rsp), %ebx
	addl	236(%rsp), %ebx
	addl	%ebx, %r9d
	movslq	%r9d, %r14
	shlq	$3, %r14
	addq	%r14, %r11
	movl	212(%rsp), %r9d
	movl	%edi, 32(%rsp)                  ## 4-byte Spill
	movl	%eax, %edi
	movl	%esi, 28(%rsp)                  ## 4-byte Spill
	movl	%ecx, %esi
	movq	%r8, %rcx
	movl	28(%rsp), %r8d                  ## 4-byte Reload
	movl	%r9d, 24(%rsp)                  ## 4-byte Spill
	movq	%r10, %r9
	movl	32(%rsp), %eax                  ## 4-byte Reload
	movl	%eax, (%rsp)
	movq	%r11, 8(%rsp)
	movl	24(%rsp), %eax                  ## 4-byte Reload
	movl	%eax, 16(%rsp)
	callq	_dgemm_5
LBB1_35:                                ##   in Loop: Header=BB1_6 Depth=1
	jmp	LBB1_36
LBB1_36:                                ##   in Loop: Header=BB1_6 Depth=1
	movl	220(%rsp), %eax
	addl	240(%rsp), %eax
	movl	%eax, 240(%rsp)
	jmp	LBB1_6
LBB1_37:
	jmp	LBB1_38
LBB1_38:
	movl	268(%rsp), %edi
	movq	256(%rsp), %rsi
	movq	224(%rsp), %rdx
	movq	248(%rsp), %rcx
	callq	_dgetrs_6
	movl	%eax, 244(%rsp)
	movl	244(%rsp), %eax
	movl	%eax, 272(%rsp)
LBB1_39:
	movl	272(%rsp), %eax
	leaq	-16(%rbp), %rsp
	popq	%rbx
	popq	%r14
	popq	%rbp
	retq
	.cfi_endproc
                                        ## -- End function
	.globl	_lu_initialize_memory           ## -- Begin function lu_initialize_memory
	.p2align	4, 0x90
_lu_initialize_memory:                  ## @lu_initialize_memory
	.cfi_startproc
## %bb.0:
	pushq	%rbp
	.cfi_def_cfa_offset 16
	.cfi_offset %rbp, -16
	movq	%rsp, %rbp
	.cfi_def_cfa_register %rbp
	subq	$16, %rsp
	movl	%edi, -4(%rbp)
	movl	$4096, %edi                     ## imm = 0x1000
	movl	$589824, %esi                   ## imm = 0x90000
	callq	_aligned_alloc
	movq	%rax, _scratch_a(%rip)
	movl	$4096, %edi                     ## imm = 0x1000
	movl	$6291456, %esi                  ## imm = 0x600000
	callq	_aligned_alloc
	movq	%rax, _scratch_b(%rip)
	movslq	-4(%rbp), %rax
	shlq	$2, %rax
	addq	$31, %rax
	andq	$-32, %rax
	movl	$32, %edi
	movq	%rax, %rsi
	callq	_aligned_alloc
	movq	%rax, _scratch_ipiv(%rip)
	addq	$16, %rsp
	popq	%rbp
	retq
	.cfi_endproc
                                        ## -- End function
	.globl	_lu_free_memory                 ## -- Begin function lu_free_memory
	.p2align	4, 0x90
_lu_free_memory:                        ## @lu_free_memory
	.cfi_startproc
## %bb.0:
	pushq	%rbp
	.cfi_def_cfa_offset 16
	.cfi_offset %rbp, -16
	movq	%rsp, %rbp
	.cfi_def_cfa_register %rbp
	movq	_scratch_a(%rip), %rax
	movq	%rax, %rdi
	callq	_free
	movq	_scratch_b(%rip), %rax
	movq	%rax, %rdi
	callq	_free
	movq	_scratch_ipiv(%rip), %rax
	movq	%rax, %rdi
	callq	_free
	popq	%rbp
	retq
	.cfi_endproc
                                        ## -- End function
	.section	__TEXT,__literal8,8byte_literals
	.p2align	3                               ## -- Begin function lu_solve_0
LCPI4_0:
	.quad	0x3bc79ca10c924223              ## double 9.9999999999999995E-21
	.section	__TEXT,__literal16,16byte_literals
	.p2align	4
LCPI4_1:
	.quad	0x7fffffffffffffff              ## double NaN
	.quad	0x7fffffffffffffff              ## double NaN
	.section	__TEXT,__text,regular,pure_instructions
	.globl	_lu_solve_0
	.p2align	4, 0x90
_lu_solve_0:                            ## @lu_solve_0
	.cfi_startproc
## %bb.0:
	pushq	%rbp
	.cfi_def_cfa_offset 16
	.cfi_offset %rbp, -16
	movq	%rsp, %rbp
	.cfi_def_cfa_register %rbp
	subq	$80, %rsp
	movl	%edi, -8(%rbp)
	movq	%rsi, -16(%rbp)
	movq	%rdx, -24(%rbp)
	movq	_scratch_ipiv(%rip), %rax
	movq	%rax, -48(%rbp)
	movl	$0, -28(%rbp)
LBB4_1:                                 ## =>This Loop Header: Depth=1
                                        ##     Child Loop BB4_3 Depth 2
                                        ##     Child Loop BB4_12 Depth 2
                                        ##     Child Loop BB4_17 Depth 2
                                        ##     Child Loop BB4_21 Depth 2
                                        ##       Child Loop BB4_23 Depth 3
	movl	-28(%rbp), %eax
	cmpl	-8(%rbp), %eax
	jge	LBB4_30
## %bb.2:                               ##   in Loop: Header=BB4_1 Depth=1
	movq	-16(%rbp), %rax
	movl	-8(%rbp), %ecx
	imull	-28(%rbp), %ecx
	addl	-28(%rbp), %ecx
	movslq	%ecx, %rdx
	vmovsd	(%rax,%rdx,8), %xmm0            ## xmm0 = mem[0],zero
	vmovdqa	LCPI4_1(%rip), %xmm1            ## xmm1 = [NaN,NaN]
	vpand	%xmm1, %xmm0, %xmm0
	vmovsd	%xmm0, -64(%rbp)
	movl	-28(%rbp), %ecx
	movl	%ecx, -68(%rbp)
	movl	-28(%rbp), %ecx
	addl	$1, %ecx
	movl	%ecx, -36(%rbp)
LBB4_3:                                 ##   Parent Loop BB4_1 Depth=1
                                        ## =>  This Inner Loop Header: Depth=2
	movl	-36(%rbp), %eax
	cmpl	-8(%rbp), %eax
	jge	LBB4_8
## %bb.4:                               ##   in Loop: Header=BB4_3 Depth=2
	movq	-16(%rbp), %rax
	movl	-8(%rbp), %ecx
	imull	-36(%rbp), %ecx
	addl	-28(%rbp), %ecx
	movslq	%ecx, %rdx
	vmovsd	(%rax,%rdx,8), %xmm0            ## xmm0 = mem[0],zero
	vmovdqa	LCPI4_1(%rip), %xmm1            ## xmm1 = [NaN,NaN]
	vpand	%xmm1, %xmm0, %xmm0
	vmovsd	%xmm0, -56(%rbp)
	vmovsd	-56(%rbp), %xmm0                ## xmm0 = mem[0],zero
	vucomisd	-64(%rbp), %xmm0
	jbe	LBB4_6
## %bb.5:                               ##   in Loop: Header=BB4_3 Depth=2
	vmovsd	-56(%rbp), %xmm0                ## xmm0 = mem[0],zero
	vmovsd	%xmm0, -64(%rbp)
	movl	-36(%rbp), %eax
	movl	%eax, -68(%rbp)
LBB4_6:                                 ##   in Loop: Header=BB4_3 Depth=2
	jmp	LBB4_7
LBB4_7:                                 ##   in Loop: Header=BB4_3 Depth=2
	movl	-36(%rbp), %eax
	addl	$1, %eax
	movl	%eax, -36(%rbp)
	jmp	LBB4_3
LBB4_8:                                 ##   in Loop: Header=BB4_1 Depth=1
	vmovsd	LCPI4_0(%rip), %xmm0            ## xmm0 = mem[0],zero
	vmovsd	-64(%rbp), %xmm1                ## xmm1 = mem[0],zero
	vxorps	%xmm2, %xmm2, %xmm2
	vsubsd	%xmm2, %xmm1, %xmm1
	vmovdqa	LCPI4_1(%rip), %xmm2            ## xmm2 = [NaN,NaN]
	vpand	%xmm2, %xmm1, %xmm1
	vucomisd	%xmm1, %xmm0
	jb	LBB4_10
## %bb.9:
	movq	___stderrp@GOTPCREL(%rip), %rax
	movq	(%rax), %rdi
	leaq	L_.str(%rip), %rsi
	movb	$0, %al
	callq	_fprintf
	movl	$-1, -4(%rbp)
	jmp	LBB4_51
LBB4_10:                                ##   in Loop: Header=BB4_1 Depth=1
	movl	-28(%rbp), %eax
	cmpl	-68(%rbp), %eax
	je	LBB4_16
## %bb.11:                              ##   in Loop: Header=BB4_1 Depth=1
	movq	-24(%rbp), %rdi
	movl	-28(%rbp), %esi
	movl	-68(%rbp), %edx
	callq	_swapd
	movl	$0, -32(%rbp)
LBB4_12:                                ##   Parent Loop BB4_1 Depth=1
                                        ## =>  This Inner Loop Header: Depth=2
	movl	-32(%rbp), %eax
	cmpl	-8(%rbp), %eax
	jge	LBB4_15
## %bb.13:                              ##   in Loop: Header=BB4_12 Depth=2
	movq	-16(%rbp), %rdi
	movl	-8(%rbp), %eax
	imull	-28(%rbp), %eax
	addl	-32(%rbp), %eax
	movl	-8(%rbp), %ecx
	imull	-68(%rbp), %ecx
	addl	-32(%rbp), %ecx
	movl	%eax, %esi
	movl	%ecx, %edx
	callq	_swapd
## %bb.14:                              ##   in Loop: Header=BB4_12 Depth=2
	movl	-32(%rbp), %eax
	addl	$1, %eax
	movl	%eax, -32(%rbp)
	jmp	LBB4_12
LBB4_15:                                ##   in Loop: Header=BB4_1 Depth=1
	jmp	LBB4_16
LBB4_16:                                ##   in Loop: Header=BB4_1 Depth=1
	movl	-28(%rbp), %eax
	addl	$1, %eax
	movl	%eax, -32(%rbp)
LBB4_17:                                ##   Parent Loop BB4_1 Depth=1
                                        ## =>  This Inner Loop Header: Depth=2
	movl	-32(%rbp), %eax
	cmpl	-8(%rbp), %eax
	jge	LBB4_20
## %bb.18:                              ##   in Loop: Header=BB4_17 Depth=2
	movq	-16(%rbp), %rax
	movl	-8(%rbp), %ecx
	imull	-32(%rbp), %ecx
	addl	-28(%rbp), %ecx
	movslq	%ecx, %rdx
	vmovsd	(%rax,%rdx,8), %xmm0            ## xmm0 = mem[0],zero
	movq	-16(%rbp), %rax
	movl	-8(%rbp), %ecx
	imull	-28(%rbp), %ecx
	addl	-28(%rbp), %ecx
	movslq	%ecx, %rdx
	vdivsd	(%rax,%rdx,8), %xmm0, %xmm0
	movq	-16(%rbp), %rax
	movl	-8(%rbp), %ecx
	imull	-32(%rbp), %ecx
	addl	-28(%rbp), %ecx
	movslq	%ecx, %rdx
	vmovsd	%xmm0, (%rax,%rdx,8)
## %bb.19:                              ##   in Loop: Header=BB4_17 Depth=2
	movl	-32(%rbp), %eax
	addl	$1, %eax
	movl	%eax, -32(%rbp)
	jmp	LBB4_17
LBB4_20:                                ##   in Loop: Header=BB4_1 Depth=1
	movl	-28(%rbp), %eax
	addl	$1, %eax
	movl	%eax, -32(%rbp)
LBB4_21:                                ##   Parent Loop BB4_1 Depth=1
                                        ## =>  This Loop Header: Depth=2
                                        ##       Child Loop BB4_23 Depth 3
	movl	-32(%rbp), %eax
	cmpl	-8(%rbp), %eax
	jge	LBB4_28
## %bb.22:                              ##   in Loop: Header=BB4_21 Depth=2
	movl	-28(%rbp), %eax
	addl	$1, %eax
	movl	%eax, -72(%rbp)
LBB4_23:                                ##   Parent Loop BB4_1 Depth=1
                                        ##     Parent Loop BB4_21 Depth=2
                                        ## =>    This Inner Loop Header: Depth=3
	movl	-72(%rbp), %eax
	cmpl	-8(%rbp), %eax
	jge	LBB4_26
## %bb.24:                              ##   in Loop: Header=BB4_23 Depth=3
	movq	-16(%rbp), %rax
	movl	-8(%rbp), %ecx
	imull	-32(%rbp), %ecx
	addl	-72(%rbp), %ecx
	movslq	%ecx, %rdx
	vmovsd	(%rax,%rdx,8), %xmm0            ## xmm0 = mem[0],zero
	movq	-16(%rbp), %rax
	movl	-8(%rbp), %ecx
	imull	-32(%rbp), %ecx
	addl	-28(%rbp), %ecx
	movslq	%ecx, %rdx
	vmovsd	(%rax,%rdx,8), %xmm1            ## xmm1 = mem[0],zero
	movq	-16(%rbp), %rax
	movl	-8(%rbp), %ecx
	imull	-28(%rbp), %ecx
	addl	-72(%rbp), %ecx
	movslq	%ecx, %rdx
	vmulsd	(%rax,%rdx,8), %xmm1, %xmm1
	vsubsd	%xmm1, %xmm0, %xmm0
	movq	-16(%rbp), %rax
	movl	-8(%rbp), %ecx
	imull	-32(%rbp), %ecx
	addl	-72(%rbp), %ecx
	movslq	%ecx, %rdx
	vmovsd	%xmm0, (%rax,%rdx,8)
## %bb.25:                              ##   in Loop: Header=BB4_23 Depth=3
	movl	-72(%rbp), %eax
	addl	$1, %eax
	movl	%eax, -72(%rbp)
	jmp	LBB4_23
LBB4_26:                                ##   in Loop: Header=BB4_21 Depth=2
	jmp	LBB4_27
LBB4_27:                                ##   in Loop: Header=BB4_21 Depth=2
	movl	-32(%rbp), %eax
	addl	$1, %eax
	movl	%eax, -32(%rbp)
	jmp	LBB4_21
LBB4_28:                                ##   in Loop: Header=BB4_1 Depth=1
	jmp	LBB4_29
LBB4_29:                                ##   in Loop: Header=BB4_1 Depth=1
	movl	-28(%rbp), %eax
	addl	$1, %eax
	movl	%eax, -28(%rbp)
	jmp	LBB4_1
LBB4_30:
	movl	$0, -36(%rbp)
LBB4_31:                                ## =>This Loop Header: Depth=1
                                        ##     Child Loop BB4_34 Depth 2
	movl	-36(%rbp), %eax
	cmpl	-8(%rbp), %eax
	jge	LBB4_40
## %bb.32:                              ##   in Loop: Header=BB4_31 Depth=1
	vmovsd	LCPI4_0(%rip), %xmm0            ## xmm0 = mem[0],zero
	movq	-24(%rbp), %rax
	movslq	-36(%rbp), %rcx
	vmovsd	(%rax,%rcx,8), %xmm1            ## xmm1 = mem[0],zero
	vxorps	%xmm2, %xmm2, %xmm2
	vsubsd	%xmm2, %xmm1, %xmm1
	vmovdqa	LCPI4_1(%rip), %xmm2            ## xmm2 = [NaN,NaN]
	vpand	%xmm2, %xmm1, %xmm1
	vucomisd	%xmm1, %xmm0
	jae	LBB4_38
## %bb.33:                              ##   in Loop: Header=BB4_31 Depth=1
	movl	-36(%rbp), %eax
	addl	$1, %eax
	movl	%eax, -28(%rbp)
LBB4_34:                                ##   Parent Loop BB4_31 Depth=1
                                        ## =>  This Inner Loop Header: Depth=2
	movl	-28(%rbp), %eax
	cmpl	-8(%rbp), %eax
	jge	LBB4_37
## %bb.35:                              ##   in Loop: Header=BB4_34 Depth=2
	movq	-24(%rbp), %rax
	movslq	-28(%rbp), %rcx
	vmovsd	(%rax,%rcx,8), %xmm0            ## xmm0 = mem[0],zero
	movq	-24(%rbp), %rax
	movslq	-36(%rbp), %rcx
	vmovsd	(%rax,%rcx,8), %xmm1            ## xmm1 = mem[0],zero
	movq	-16(%rbp), %rax
	movl	-8(%rbp), %edx
	imull	-28(%rbp), %edx
	addl	-36(%rbp), %edx
	movslq	%edx, %rcx
	vmulsd	(%rax,%rcx,8), %xmm1, %xmm1
	vsubsd	%xmm1, %xmm0, %xmm0
	movq	-24(%rbp), %rax
	movslq	-28(%rbp), %rcx
	vmovsd	%xmm0, (%rax,%rcx,8)
## %bb.36:                              ##   in Loop: Header=BB4_34 Depth=2
	movl	-28(%rbp), %eax
	addl	$1, %eax
	movl	%eax, -28(%rbp)
	jmp	LBB4_34
LBB4_37:                                ##   in Loop: Header=BB4_31 Depth=1
	jmp	LBB4_38
LBB4_38:                                ##   in Loop: Header=BB4_31 Depth=1
	jmp	LBB4_39
LBB4_39:                                ##   in Loop: Header=BB4_31 Depth=1
	movl	-36(%rbp), %eax
	addl	$1, %eax
	movl	%eax, -36(%rbp)
	jmp	LBB4_31
LBB4_40:
	movl	-8(%rbp), %eax
	subl	$1, %eax
	movl	%eax, -36(%rbp)
LBB4_41:                                ## =>This Loop Header: Depth=1
                                        ##     Child Loop BB4_44 Depth 2
	cmpl	$0, -36(%rbp)
	jl	LBB4_50
## %bb.42:                              ##   in Loop: Header=BB4_41 Depth=1
	vmovsd	LCPI4_0(%rip), %xmm0            ## xmm0 = mem[0],zero
	movq	-24(%rbp), %rax
	movslq	-36(%rbp), %rcx
	vmovsd	(%rax,%rcx,8), %xmm1            ## xmm1 = mem[0],zero
	vxorps	%xmm2, %xmm2, %xmm2
	vsubsd	%xmm2, %xmm1, %xmm1
	vmovdqa	LCPI4_1(%rip), %xmm2            ## xmm2 = [NaN,NaN]
	vpand	%xmm2, %xmm1, %xmm1
	vucomisd	%xmm1, %xmm0
	jae	LBB4_48
## %bb.43:                              ##   in Loop: Header=BB4_41 Depth=1
	movq	-24(%rbp), %rax
	movslq	-36(%rbp), %rcx
	vmovsd	(%rax,%rcx,8), %xmm0            ## xmm0 = mem[0],zero
	movq	-16(%rbp), %rax
	movl	-8(%rbp), %edx
	imull	-36(%rbp), %edx
	addl	-36(%rbp), %edx
	movslq	%edx, %rcx
	vdivsd	(%rax,%rcx,8), %xmm0, %xmm0
	movq	-24(%rbp), %rax
	movslq	-36(%rbp), %rcx
	vmovsd	%xmm0, (%rax,%rcx,8)
	movl	$0, -28(%rbp)
LBB4_44:                                ##   Parent Loop BB4_41 Depth=1
                                        ## =>  This Inner Loop Header: Depth=2
	movl	-28(%rbp), %eax
	cmpl	-36(%rbp), %eax
	jge	LBB4_47
## %bb.45:                              ##   in Loop: Header=BB4_44 Depth=2
	movq	-24(%rbp), %rax
	movslq	-28(%rbp), %rcx
	vmovsd	(%rax,%rcx,8), %xmm0            ## xmm0 = mem[0],zero
	movq	-24(%rbp), %rax
	movslq	-36(%rbp), %rcx
	vmovsd	(%rax,%rcx,8), %xmm1            ## xmm1 = mem[0],zero
	movq	-16(%rbp), %rax
	movl	-8(%rbp), %edx
	imull	-28(%rbp), %edx
	addl	-36(%rbp), %edx
	movslq	%edx, %rcx
	vmulsd	(%rax,%rcx,8), %xmm1, %xmm1
	vsubsd	%xmm1, %xmm0, %xmm0
	movq	-24(%rbp), %rax
	movslq	-28(%rbp), %rcx
	vmovsd	%xmm0, (%rax,%rcx,8)
## %bb.46:                              ##   in Loop: Header=BB4_44 Depth=2
	movl	-28(%rbp), %eax
	addl	$1, %eax
	movl	%eax, -28(%rbp)
	jmp	LBB4_44
LBB4_47:                                ##   in Loop: Header=BB4_41 Depth=1
	jmp	LBB4_48
LBB4_48:                                ##   in Loop: Header=BB4_41 Depth=1
	jmp	LBB4_49
LBB4_49:                                ##   in Loop: Header=BB4_41 Depth=1
	movl	-36(%rbp), %eax
	addl	$-1, %eax
	movl	%eax, -36(%rbp)
	jmp	LBB4_41
LBB4_50:
	movl	$0, -4(%rbp)
LBB4_51:
	movl	-4(%rbp), %eax
	addq	$80, %rsp
	popq	%rbp
	retq
	.cfi_endproc
                                        ## -- End function
	.p2align	4, 0x90                         ## -- Begin function swapd
_swapd:                                 ## @swapd
	.cfi_startproc
## %bb.0:
	pushq	%rbp
	.cfi_def_cfa_offset 16
	.cfi_offset %rbp, -16
	movq	%rsp, %rbp
	.cfi_def_cfa_register %rbp
	movq	%rdi, -8(%rbp)
	movl	%esi, -12(%rbp)
	movl	%edx, -16(%rbp)
	movq	-8(%rbp), %rax
	movslq	-12(%rbp), %rcx
	vmovsd	(%rax,%rcx,8), %xmm0            ## xmm0 = mem[0],zero
	vmovsd	%xmm0, -24(%rbp)
	movq	-8(%rbp), %rax
	movslq	-16(%rbp), %rcx
	vmovsd	(%rax,%rcx,8), %xmm0            ## xmm0 = mem[0],zero
	movq	-8(%rbp), %rax
	movslq	-12(%rbp), %rcx
	vmovsd	%xmm0, (%rax,%rcx,8)
	vmovsd	-24(%rbp), %xmm0                ## xmm0 = mem[0],zero
	movq	-8(%rbp), %rax
	movslq	-16(%rbp), %rcx
	vmovsd	%xmm0, (%rax,%rcx,8)
	popq	%rbp
	retq
	.cfi_endproc
                                        ## -- End function
	.section	__TEXT,__literal8,8byte_literals
	.p2align	3                               ## -- Begin function dgemm_1T
LCPI6_0:
	.quad	0x3bc79ca10c924223              ## double 9.9999999999999995E-21
LCPI6_2:
	.quad	0x3ff0000000000000              ## double 1
LCPI6_3:
	.quad	0xbff0000000000000              ## double -1
	.section	__TEXT,__literal16,16byte_literals
	.p2align	4
LCPI6_1:
	.quad	0x7fffffffffffffff              ## double NaN
	.quad	0x7fffffffffffffff              ## double NaN
	.section	__TEXT,__text,regular,pure_instructions
	.globl	_dgemm_1T
	.p2align	4, 0x90
_dgemm_1T:                              ## @dgemm_1T
	.cfi_startproc
## %bb.0:
	pushq	%rbp
	.cfi_def_cfa_offset 16
	.cfi_offset %rbp, -16
	movq	%rsp, %rbp
	.cfi_def_cfa_register %rbp
	pushq	%rbx
	subq	$88, %rsp
	.cfi_offset %rbx, -24
	movl	32(%rbp), %eax
	movq	24(%rbp), %r10
	movl	16(%rbp), %r11d
	vmovsd	LCPI6_0(%rip), %xmm2            ## xmm2 = mem[0],zero
	vmovsd	LCPI6_2(%rip), %xmm3            ## xmm3 = mem[0],zero
	movl	%edi, -12(%rbp)
	movl	%esi, -16(%rbp)
	movl	%edx, -20(%rbp)
	vmovsd	%xmm0, -32(%rbp)
	movq	%rcx, -40(%rbp)
	movl	%r8d, -44(%rbp)
	movq	%r9, -56(%rbp)
	vmovsd	%xmm1, -64(%rbp)
	vmovsd	-64(%rbp), %xmm0                ## xmm0 = mem[0],zero
	vsubsd	%xmm3, %xmm0, %xmm0
	vmovdqa	LCPI6_1(%rip), %xmm1            ## xmm1 = [NaN,NaN]
	vpand	%xmm1, %xmm0, %xmm0
	vucomisd	%xmm0, %xmm2
	setae	%bl
	xorb	$-1, %bl
	andb	$1, %bl
	movzbl	%bl, %edx
	movslq	%edx, %rcx
	cmpq	$0, %rcx
	je	LBB6_2
## %bb.1:
	leaq	L___func__.dgemm_1T(%rip), %rdi
	leaq	L_.str.1(%rip), %rsi
	leaq	L_.str.2(%rip), %rcx
	movl	$476, %edx                      ## imm = 0x1DC
	callq	___assert_rtn
LBB6_2:
	jmp	LBB6_3
LBB6_3:
	vmovsd	LCPI6_0(%rip), %xmm0            ## xmm0 = mem[0],zero
	vmovsd	LCPI6_3(%rip), %xmm1            ## xmm1 = mem[0],zero
	vmovsd	-32(%rbp), %xmm2                ## xmm2 = mem[0],zero
	vsubsd	%xmm1, %xmm2, %xmm1
	vmovdqa	LCPI6_1(%rip), %xmm2            ## xmm2 = [NaN,NaN]
	vpand	%xmm2, %xmm1, %xmm1
	vucomisd	%xmm1, %xmm0
	setae	%al
	xorb	$-1, %al
	andb	$1, %al
	movzbl	%al, %ecx
	movslq	%ecx, %rdx
	cmpq	$0, %rdx
	je	LBB6_5
## %bb.4:
	leaq	L___func__.dgemm_1T(%rip), %rdi
	leaq	L_.str.1(%rip), %rsi
	leaq	L_.str.3(%rip), %rcx
	movl	$477, %edx                      ## imm = 0x1DD
	callq	___assert_rtn
LBB6_5:
	jmp	LBB6_6
LBB6_6:
	movl	$0, -68(%rbp)
LBB6_7:                                 ## =>This Loop Header: Depth=1
                                        ##     Child Loop BB6_9 Depth 2
                                        ##       Child Loop BB6_11 Depth 3
	movl	-68(%rbp), %eax
	cmpl	-12(%rbp), %eax
	jge	LBB6_18
## %bb.8:                               ##   in Loop: Header=BB6_7 Depth=1
	movl	$0, -72(%rbp)
LBB6_9:                                 ##   Parent Loop BB6_7 Depth=1
                                        ## =>  This Loop Header: Depth=2
                                        ##       Child Loop BB6_11 Depth 3
	movl	-72(%rbp), %eax
	cmpl	-16(%rbp), %eax
	jge	LBB6_16
## %bb.10:                              ##   in Loop: Header=BB6_9 Depth=2
	movq	24(%rbp), %rax
	movl	32(%rbp), %ecx
	imull	-72(%rbp), %ecx
	addl	-68(%rbp), %ecx
	movslq	%ecx, %rdx
	vmovsd	(%rax,%rdx,8), %xmm0            ## xmm0 = mem[0],zero
	vmovsd	%xmm0, -88(%rbp)
	movl	$0, -76(%rbp)
LBB6_11:                                ##   Parent Loop BB6_7 Depth=1
                                        ##     Parent Loop BB6_9 Depth=2
                                        ## =>    This Inner Loop Header: Depth=3
	movl	-76(%rbp), %eax
	cmpl	-20(%rbp), %eax
	jge	LBB6_14
## %bb.12:                              ##   in Loop: Header=BB6_11 Depth=3
	vmovsd	-32(%rbp), %xmm0                ## xmm0 = mem[0],zero
	movq	-40(%rbp), %rax
	movl	-44(%rbp), %ecx
	imull	-76(%rbp), %ecx
	addl	-68(%rbp), %ecx
	movslq	%ecx, %rdx
	vmulsd	(%rax,%rdx,8), %xmm0, %xmm0
	movq	-56(%rbp), %rax
	movl	16(%rbp), %ecx
	imull	-72(%rbp), %ecx
	addl	-76(%rbp), %ecx
	movslq	%ecx, %rdx
	vmulsd	(%rax,%rdx,8), %xmm0, %xmm0
	vaddsd	-88(%rbp), %xmm0, %xmm0
	vmovsd	%xmm0, -88(%rbp)
## %bb.13:                              ##   in Loop: Header=BB6_11 Depth=3
	movl	-76(%rbp), %eax
	addl	$1, %eax
	movl	%eax, -76(%rbp)
	jmp	LBB6_11
LBB6_14:                                ##   in Loop: Header=BB6_9 Depth=2
	vmovsd	-88(%rbp), %xmm0                ## xmm0 = mem[0],zero
	movq	24(%rbp), %rax
	movl	32(%rbp), %ecx
	imull	-72(%rbp), %ecx
	addl	-68(%rbp), %ecx
	movslq	%ecx, %rdx
	vmovsd	%xmm0, (%rax,%rdx,8)
## %bb.15:                              ##   in Loop: Header=BB6_9 Depth=2
	movl	-72(%rbp), %eax
	addl	$1, %eax
	movl	%eax, -72(%rbp)
	jmp	LBB6_9
LBB6_16:                                ##   in Loop: Header=BB6_7 Depth=1
	jmp	LBB6_17
LBB6_17:                                ##   in Loop: Header=BB6_7 Depth=1
	movl	-68(%rbp), %eax
	addl	$1, %eax
	movl	%eax, -68(%rbp)
	jmp	LBB6_7
LBB6_18:
	addq	$88, %rsp
	popq	%rbx
	popq	%rbp
	retq
	.cfi_endproc
                                        ## -- End function
	.section	__TEXT,__literal8,8byte_literals
	.p2align	3                               ## -- Begin function dgetf2_1
LCPI7_0:
	.quad	0x3bc79ca10c924223              ## double 9.9999999999999995E-21
	.section	__TEXT,__literal16,16byte_literals
	.p2align	4
LCPI7_1:
	.quad	0x7fffffffffffffff              ## double NaN
	.quad	0x7fffffffffffffff              ## double NaN
	.section	__TEXT,__text,regular,pure_instructions
	.globl	_dgetf2_1
	.p2align	4, 0x90
_dgetf2_1:                              ## @dgetf2_1
	.cfi_startproc
## %bb.0:
	pushq	%rbp
	.cfi_def_cfa_offset 16
	.cfi_offset %rbp, -16
	movq	%rsp, %rbp
	.cfi_def_cfa_register %rbp
	subq	$112, %rsp
	movl	%edi, -8(%rbp)
	movl	%esi, -12(%rbp)
	movq	%rdx, -24(%rbp)
	movl	%ecx, -28(%rbp)
	movq	%r8, -40(%rbp)
	movl	$0, -44(%rbp)
LBB7_1:                                 ## =>This Loop Header: Depth=1
                                        ##     Child Loop BB7_10 Depth 2
                                        ##     Child Loop BB7_18 Depth 2
                                        ##       Child Loop BB7_20 Depth 3
	movl	-44(%rbp), %eax
	movl	-8(%rbp), %ecx
	cmpl	-12(%rbp), %ecx
	movl	%eax, -68(%rbp)                 ## 4-byte Spill
	jge	LBB7_3
## %bb.2:                               ##   in Loop: Header=BB7_1 Depth=1
	movl	-8(%rbp), %eax
	movl	%eax, -72(%rbp)                 ## 4-byte Spill
	jmp	LBB7_4
LBB7_3:                                 ##   in Loop: Header=BB7_1 Depth=1
	movl	-12(%rbp), %eax
	movl	%eax, -72(%rbp)                 ## 4-byte Spill
LBB7_4:                                 ##   in Loop: Header=BB7_1 Depth=1
	movl	-72(%rbp), %eax                 ## 4-byte Reload
	movl	-68(%rbp), %ecx                 ## 4-byte Reload
	cmpl	%eax, %ecx
	jge	LBB7_28
## %bb.5:                               ##   in Loop: Header=BB7_1 Depth=1
	movl	-44(%rbp), %eax
	movl	-8(%rbp), %ecx
	subl	-44(%rbp), %ecx
	movq	-24(%rbp), %rdx
	movl	-28(%rbp), %esi
	imull	-44(%rbp), %esi
	addl	-44(%rbp), %esi
	movslq	%esi, %rdi
	shlq	$3, %rdi
	addq	%rdi, %rdx
	movl	-28(%rbp), %esi
	movl	%ecx, %edi
	movl	%esi, -76(%rbp)                 ## 4-byte Spill
	movq	%rdx, %rsi
	movl	-76(%rbp), %edx                 ## 4-byte Reload
	movl	%eax, -80(%rbp)                 ## 4-byte Spill
	callq	_isamax_1
	vmovsd	LCPI7_0(%rip), %xmm0            ## xmm0 = mem[0],zero
	movl	-80(%rbp), %ecx                 ## 4-byte Reload
	addl	%eax, %ecx
	movl	%ecx, -60(%rbp)
	movq	-24(%rbp), %rsi
	movl	-28(%rbp), %eax
	imull	-60(%rbp), %eax
	addl	-44(%rbp), %eax
	movslq	%eax, %r8
	vmovsd	(%rsi,%r8,8), %xmm1             ## xmm1 = mem[0],zero
	vmovsd	%xmm1, -56(%rbp)
	vmovsd	-56(%rbp), %xmm1                ## xmm1 = mem[0],zero
	vxorps	%xmm2, %xmm2, %xmm2
	vsubsd	%xmm2, %xmm1, %xmm1
	vmovdqa	LCPI7_1(%rip), %xmm2            ## xmm2 = [NaN,NaN]
	vpand	%xmm2, %xmm1, %xmm1
	vucomisd	%xmm1, %xmm0
	jb	LBB7_7
## %bb.6:
	movq	___stderrp@GOTPCREL(%rip), %rax
	movq	(%rax), %rdi
	leaq	L_.str(%rip), %rsi
	movb	$0, %al
	callq	_fprintf
	movl	$-1, -4(%rbp)
	jmp	LBB7_29
LBB7_7:                                 ##   in Loop: Header=BB7_1 Depth=1
	movl	-60(%rbp), %eax
	movq	-40(%rbp), %rcx
	movslq	-44(%rbp), %rdx
	movl	%eax, (%rcx,%rdx,4)
	movl	-44(%rbp), %eax
	cmpl	-60(%rbp), %eax
	je	LBB7_9
## %bb.8:                               ##   in Loop: Header=BB7_1 Depth=1
	movl	-12(%rbp), %edi
	movq	-24(%rbp), %rax
	movl	-28(%rbp), %ecx
	imull	-44(%rbp), %ecx
	addl	$0, %ecx
	movslq	%ecx, %rdx
	shlq	$3, %rdx
	addq	%rdx, %rax
	movq	-24(%rbp), %rdx
	movl	-28(%rbp), %ecx
	imull	-60(%rbp), %ecx
	addl	$0, %ecx
	movslq	%ecx, %rsi
	shlq	$3, %rsi
	addq	%rsi, %rdx
	movq	%rax, %rsi
	movl	$1, %ecx
	movq	%rdx, -88(%rbp)                 ## 8-byte Spill
	movl	%ecx, %edx
	movq	-88(%rbp), %rax                 ## 8-byte Reload
	movl	%ecx, -92(%rbp)                 ## 4-byte Spill
	movq	%rax, %rcx
	movl	-92(%rbp), %r8d                 ## 4-byte Reload
	callq	_dswap_1
LBB7_9:                                 ##   in Loop: Header=BB7_1 Depth=1
	movl	-44(%rbp), %eax
	addl	$1, %eax
	movl	%eax, -48(%rbp)
LBB7_10:                                ##   Parent Loop BB7_1 Depth=1
                                        ## =>  This Inner Loop Header: Depth=2
	movl	-48(%rbp), %eax
	cmpl	-8(%rbp), %eax
	jge	LBB7_13
## %bb.11:                              ##   in Loop: Header=BB7_10 Depth=2
	movq	-24(%rbp), %rax
	movl	-28(%rbp), %ecx
	imull	-48(%rbp), %ecx
	addl	-44(%rbp), %ecx
	movslq	%ecx, %rdx
	vmovsd	(%rax,%rdx,8), %xmm0            ## xmm0 = mem[0],zero
	movq	-24(%rbp), %rax
	movl	-28(%rbp), %ecx
	imull	-44(%rbp), %ecx
	addl	-44(%rbp), %ecx
	movslq	%ecx, %rdx
	vdivsd	(%rax,%rdx,8), %xmm0, %xmm0
	movq	-24(%rbp), %rax
	movl	-28(%rbp), %ecx
	imull	-48(%rbp), %ecx
	addl	-44(%rbp), %ecx
	movslq	%ecx, %rdx
	vmovsd	%xmm0, (%rax,%rdx,8)
## %bb.12:                              ##   in Loop: Header=BB7_10 Depth=2
	movl	-48(%rbp), %eax
	addl	$1, %eax
	movl	%eax, -48(%rbp)
	jmp	LBB7_10
LBB7_13:                                ##   in Loop: Header=BB7_1 Depth=1
	movl	-44(%rbp), %eax
	movl	-8(%rbp), %ecx
	cmpl	-12(%rbp), %ecx
	movl	%eax, -96(%rbp)                 ## 4-byte Spill
	jge	LBB7_15
## %bb.14:                              ##   in Loop: Header=BB7_1 Depth=1
	movl	-8(%rbp), %eax
	movl	%eax, -100(%rbp)                ## 4-byte Spill
	jmp	LBB7_16
LBB7_15:                                ##   in Loop: Header=BB7_1 Depth=1
	movl	-12(%rbp), %eax
	movl	%eax, -100(%rbp)                ## 4-byte Spill
LBB7_16:                                ##   in Loop: Header=BB7_1 Depth=1
	movl	-100(%rbp), %eax                ## 4-byte Reload
	movl	-96(%rbp), %ecx                 ## 4-byte Reload
	cmpl	%eax, %ecx
	jge	LBB7_26
## %bb.17:                              ##   in Loop: Header=BB7_1 Depth=1
	movl	-44(%rbp), %eax
	addl	$1, %eax
	movl	%eax, -48(%rbp)
LBB7_18:                                ##   Parent Loop BB7_1 Depth=1
                                        ## =>  This Loop Header: Depth=2
                                        ##       Child Loop BB7_20 Depth 3
	movl	-48(%rbp), %eax
	cmpl	-8(%rbp), %eax
	jge	LBB7_25
## %bb.19:                              ##   in Loop: Header=BB7_18 Depth=2
	movl	-44(%rbp), %eax
	addl	$1, %eax
	movl	%eax, -64(%rbp)
LBB7_20:                                ##   Parent Loop BB7_1 Depth=1
                                        ##     Parent Loop BB7_18 Depth=2
                                        ## =>    This Inner Loop Header: Depth=3
	movl	-64(%rbp), %eax
	cmpl	-12(%rbp), %eax
	jge	LBB7_23
## %bb.21:                              ##   in Loop: Header=BB7_20 Depth=3
	movq	-24(%rbp), %rax
	movl	-28(%rbp), %ecx
	imull	-48(%rbp), %ecx
	addl	-64(%rbp), %ecx
	movslq	%ecx, %rdx
	vmovsd	(%rax,%rdx,8), %xmm0            ## xmm0 = mem[0],zero
	movq	-24(%rbp), %rax
	movl	-28(%rbp), %ecx
	imull	-48(%rbp), %ecx
	addl	-44(%rbp), %ecx
	movslq	%ecx, %rdx
	vmovsd	(%rax,%rdx,8), %xmm1            ## xmm1 = mem[0],zero
	movq	-24(%rbp), %rax
	movl	-28(%rbp), %ecx
	imull	-44(%rbp), %ecx
	addl	-64(%rbp), %ecx
	movslq	%ecx, %rdx
	vmulsd	(%rax,%rdx,8), %xmm1, %xmm1
	vsubsd	%xmm1, %xmm0, %xmm0
	movq	-24(%rbp), %rax
	movl	-28(%rbp), %ecx
	imull	-48(%rbp), %ecx
	addl	-64(%rbp), %ecx
	movslq	%ecx, %rdx
	vmovsd	%xmm0, (%rax,%rdx,8)
## %bb.22:                              ##   in Loop: Header=BB7_20 Depth=3
	movl	-64(%rbp), %eax
	addl	$1, %eax
	movl	%eax, -64(%rbp)
	jmp	LBB7_20
LBB7_23:                                ##   in Loop: Header=BB7_18 Depth=2
	jmp	LBB7_24
LBB7_24:                                ##   in Loop: Header=BB7_18 Depth=2
	movl	-48(%rbp), %eax
	addl	$1, %eax
	movl	%eax, -48(%rbp)
	jmp	LBB7_18
LBB7_25:                                ##   in Loop: Header=BB7_1 Depth=1
	jmp	LBB7_26
LBB7_26:                                ##   in Loop: Header=BB7_1 Depth=1
	jmp	LBB7_27
LBB7_27:                                ##   in Loop: Header=BB7_1 Depth=1
	movl	-44(%rbp), %eax
	addl	$1, %eax
	movl	%eax, -44(%rbp)
	jmp	LBB7_1
LBB7_28:
	movl	$0, -4(%rbp)
LBB7_29:
	movl	-4(%rbp), %eax
	addq	$112, %rsp
	popq	%rbp
	retq
	.cfi_endproc
                                        ## -- End function
	.section	__TEXT,__literal16,16byte_literals
	.p2align	4                               ## -- Begin function isamax_1
LCPI8_0:
	.quad	0x7fffffffffffffff              ## double NaN
	.quad	0x7fffffffffffffff              ## double NaN
	.section	__TEXT,__text,regular,pure_instructions
	.p2align	4, 0x90
_isamax_1:                              ## @isamax_1
	.cfi_startproc
## %bb.0:
	pushq	%rbp
	.cfi_def_cfa_offset 16
	.cfi_offset %rbp, -16
	movq	%rsp, %rbp
	.cfi_def_cfa_register %rbp
	subq	$64, %rsp
	xorl	%eax, %eax
	movl	%edi, -8(%rbp)
	movq	%rsi, -16(%rbp)
	movl	%edx, -20(%rbp)
	cmpl	-8(%rbp), %eax
	jne	LBB8_2
## %bb.1:
	movl	$0, -4(%rbp)
	jmp	LBB8_15
LBB8_2:
	xorl	%eax, %eax
	cmpl	-20(%rbp), %eax
	setl	%cl
	xorb	$-1, %cl
	andb	$1, %cl
	movzbl	%cl, %eax
	movslq	%eax, %rdx
	cmpq	$0, %rdx
	je	LBB8_4
## %bb.3:
	leaq	L___func__.isamax_1(%rip), %rdi
	leaq	L_.str.1(%rip), %rsi
	leaq	L_.str.5(%rip), %rcx
	movl	$333, %edx                      ## imm = 0x14D
	callq	___assert_rtn
LBB8_4:
	jmp	LBB8_5
LBB8_5:
	movq	-16(%rbp), %rax
	vmovsd	(%rax), %xmm0                   ## xmm0 = mem[0],zero
	vmovdqa	LCPI8_0(%rip), %xmm1            ## xmm1 = [NaN,NaN]
	vpand	%xmm1, %xmm0, %xmm0
	vmovsd	%xmm0, -32(%rbp)
	movl	$0, -48(%rbp)
	movl	-20(%rbp), %ecx
	addl	$0, %ecx
	movl	%ecx, -52(%rbp)
	movl	$1, -44(%rbp)
LBB8_6:                                 ## =>This Inner Loop Header: Depth=1
	movl	-44(%rbp), %eax
	cmpl	-8(%rbp), %eax
	jge	LBB8_14
## %bb.7:                               ##   in Loop: Header=BB8_6 Depth=1
	movl	-52(%rbp), %eax
	movl	-44(%rbp), %ecx
	imull	-20(%rbp), %ecx
	cmpl	%ecx, %eax
	sete	%dl
	xorb	$-1, %dl
	andb	$1, %dl
	movzbl	%dl, %eax
	movslq	%eax, %rsi
	cmpq	$0, %rsi
	je	LBB8_9
## %bb.8:
	leaq	L___func__.isamax_1(%rip), %rdi
	leaq	L_.str.1(%rip), %rsi
	leaq	L_.str.6(%rip), %rcx
	movl	$346, %edx                      ## imm = 0x15A
	callq	___assert_rtn
LBB8_9:                                 ##   in Loop: Header=BB8_6 Depth=1
	jmp	LBB8_10
LBB8_10:                                ##   in Loop: Header=BB8_6 Depth=1
	movq	-16(%rbp), %rax
	movslq	-52(%rbp), %rcx
	vmovsd	(%rax,%rcx,8), %xmm0            ## xmm0 = mem[0],zero
	vmovdqa	LCPI8_0(%rip), %xmm1            ## xmm1 = [NaN,NaN]
	vpand	%xmm1, %xmm0, %xmm0
	vmovsd	%xmm0, -40(%rbp)
	vmovsd	-40(%rbp), %xmm0                ## xmm0 = mem[0],zero
	vucomisd	-32(%rbp), %xmm0
	jbe	LBB8_12
## %bb.11:                              ##   in Loop: Header=BB8_6 Depth=1
	vmovsd	-40(%rbp), %xmm0                ## xmm0 = mem[0],zero
	vmovsd	%xmm0, -32(%rbp)
	movl	-44(%rbp), %eax
	movl	%eax, -48(%rbp)
LBB8_12:                                ##   in Loop: Header=BB8_6 Depth=1
	jmp	LBB8_13
LBB8_13:                                ##   in Loop: Header=BB8_6 Depth=1
	movl	-44(%rbp), %eax
	addl	$1, %eax
	movl	%eax, -44(%rbp)
	movl	-20(%rbp), %eax
	addl	-52(%rbp), %eax
	movl	%eax, -52(%rbp)
	jmp	LBB8_6
LBB8_14:
	movl	-48(%rbp), %eax
	movl	%eax, -4(%rbp)
LBB8_15:
	movl	-4(%rbp), %eax
	addq	$64, %rsp
	popq	%rbp
	retq
	.cfi_endproc
                                        ## -- End function
	.p2align	4, 0x90                         ## -- Begin function dswap_1
_dswap_1:                               ## @dswap_1
	.cfi_startproc
## %bb.0:
	pushq	%rbp
	.cfi_def_cfa_offset 16
	.cfi_offset %rbp, -16
	movq	%rsp, %rbp
	.cfi_def_cfa_register %rbp
	subq	$64, %rsp
	xorl	%eax, %eax
	movl	%edi, -4(%rbp)
	movq	%rsi, -16(%rbp)
	movl	%edx, -20(%rbp)
	movq	%rcx, -32(%rbp)
	movl	%r8d, -36(%rbp)
	cmpl	-4(%rbp), %eax
	setl	%r9b
	xorb	$-1, %r9b
	andb	$1, %r9b
	movzbl	%r9b, %eax
	movslq	%eax, %rcx
	cmpq	$0, %rcx
	je	LBB9_2
## %bb.1:
	leaq	L___func__.dswap_1(%rip), %rdi
	leaq	L_.str.1(%rip), %rsi
	leaq	L_.str.7(%rip), %rcx
	movl	$363, %edx                      ## imm = 0x16B
	callq	___assert_rtn
LBB9_2:
	jmp	LBB9_3
LBB9_3:
	xorl	%eax, %eax
	cmpl	-20(%rbp), %eax
	setl	%cl
	xorb	$-1, %cl
	andb	$1, %cl
	movzbl	%cl, %eax
	movslq	%eax, %rdx
	cmpq	$0, %rdx
	je	LBB9_5
## %bb.4:
	leaq	L___func__.dswap_1(%rip), %rdi
	leaq	L_.str.1(%rip), %rsi
	leaq	L_.str.8(%rip), %rcx
	movl	$364, %edx                      ## imm = 0x16C
	callq	___assert_rtn
LBB9_5:
	jmp	LBB9_6
LBB9_6:
	xorl	%eax, %eax
	cmpl	-36(%rbp), %eax
	setl	%cl
	xorb	$-1, %cl
	andb	$1, %cl
	movzbl	%cl, %eax
	movslq	%eax, %rdx
	cmpq	$0, %rdx
	je	LBB9_8
## %bb.7:
	leaq	L___func__.dswap_1(%rip), %rdi
	leaq	L_.str.1(%rip), %rsi
	leaq	L_.str.9(%rip), %rcx
	movl	$365, %edx                      ## imm = 0x16D
	callq	___assert_rtn
LBB9_8:
	jmp	LBB9_9
LBB9_9:
	movl	$0, -52(%rbp)
	movl	$0, -56(%rbp)
	movl	$0, -60(%rbp)
LBB9_10:                                ## =>This Inner Loop Header: Depth=1
	movl	-52(%rbp), %eax
	cmpl	-4(%rbp), %eax
	jge	LBB9_13
## %bb.11:                              ##   in Loop: Header=BB9_10 Depth=1
	movq	-16(%rbp), %rax
	movslq	-56(%rbp), %rcx
	vmovsd	(%rax,%rcx,8), %xmm0            ## xmm0 = mem[0],zero
	vmovsd	%xmm0, -48(%rbp)
	movq	-32(%rbp), %rax
	movslq	-60(%rbp), %rcx
	vmovsd	(%rax,%rcx,8), %xmm0            ## xmm0 = mem[0],zero
	movq	-16(%rbp), %rax
	movslq	-56(%rbp), %rcx
	vmovsd	%xmm0, (%rax,%rcx,8)
	vmovsd	-48(%rbp), %xmm0                ## xmm0 = mem[0],zero
	movq	-32(%rbp), %rax
	movslq	-60(%rbp), %rcx
	vmovsd	%xmm0, (%rax,%rcx,8)
## %bb.12:                              ##   in Loop: Header=BB9_10 Depth=1
	movl	-52(%rbp), %eax
	addl	$1, %eax
	movl	%eax, -52(%rbp)
	movl	-20(%rbp), %eax
	addl	-56(%rbp), %eax
	movl	%eax, -56(%rbp)
	movl	-36(%rbp), %eax
	addl	-60(%rbp), %eax
	movl	%eax, -60(%rbp)
	jmp	LBB9_10
LBB9_13:
	addq	$64, %rsp
	popq	%rbp
	retq
	.cfi_endproc
                                        ## -- End function
	.section	__TEXT,__literal8,8byte_literals
	.p2align	3                               ## -- Begin function lu_solve_1
LCPI10_0:
	.quad	0xbff0000000000000              ## double -1
LCPI10_1:
	.quad	0x3ff0000000000000              ## double 1
	.section	__TEXT,__text,regular,pure_instructions
	.globl	_lu_solve_1
	.p2align	4, 0x90
_lu_solve_1:                            ## @lu_solve_1
	.cfi_startproc
## %bb.0:
	pushq	%rbp
	.cfi_def_cfa_offset 16
	.cfi_offset %rbp, -16
	movq	%rsp, %rbp
	.cfi_def_cfa_register %rbp
	pushq	%r14
	pushq	%rbx
	subq	$160, %rsp
	.cfi_offset %rbx, -32
	.cfi_offset %r14, -24
	movl	%edi, -24(%rbp)
	movq	%rsi, -32(%rbp)
	movq	%rdx, -40(%rbp)
	movq	_scratch_ipiv(%rip), %rax
	movq	%rax, -48(%rbp)
	movl	$32, -52(%rbp)
	movl	-24(%rbp), %ecx
	movl	%ecx, -60(%rbp)
	movl	-24(%rbp), %ecx
	movl	%ecx, -64(%rbp)
	movl	-24(%rbp), %ecx
	cmpl	-52(%rbp), %ecx
	jge	LBB10_4
## %bb.1:
	movl	-60(%rbp), %edi
	movl	-24(%rbp), %esi
	movq	-32(%rbp), %rdx
	movl	-64(%rbp), %ecx
	movq	-48(%rbp), %r8
	callq	_dgetf2_1
	movl	%eax, -56(%rbp)
	cmpl	$0, -56(%rbp)
	je	LBB10_3
## %bb.2:
	movl	-56(%rbp), %eax
	movl	%eax, -20(%rbp)
	jmp	LBB10_35
LBB10_3:
	jmp	LBB10_34
LBB10_4:
	movl	$0, -68(%rbp)
LBB10_5:                                ## =>This Loop Header: Depth=1
                                        ##     Child Loop BB10_21 Depth 2
	movl	-68(%rbp), %eax
	movl	-60(%rbp), %ecx
	cmpl	-24(%rbp), %ecx
	movl	%eax, -80(%rbp)                 ## 4-byte Spill
	jge	LBB10_7
## %bb.6:                               ##   in Loop: Header=BB10_5 Depth=1
	movl	-60(%rbp), %eax
	movl	%eax, -84(%rbp)                 ## 4-byte Spill
	jmp	LBB10_8
LBB10_7:                                ##   in Loop: Header=BB10_5 Depth=1
	movl	-24(%rbp), %eax
	movl	%eax, -84(%rbp)                 ## 4-byte Spill
LBB10_8:                                ##   in Loop: Header=BB10_5 Depth=1
	movl	-84(%rbp), %eax                 ## 4-byte Reload
	movl	-80(%rbp), %ecx                 ## 4-byte Reload
	cmpl	%eax, %ecx
	jge	LBB10_33
## %bb.9:                               ##   in Loop: Header=BB10_5 Depth=1
	movl	-60(%rbp), %eax
	cmpl	-24(%rbp), %eax
	jge	LBB10_11
## %bb.10:                              ##   in Loop: Header=BB10_5 Depth=1
	movl	-60(%rbp), %eax
	movl	%eax, -88(%rbp)                 ## 4-byte Spill
	jmp	LBB10_12
LBB10_11:                               ##   in Loop: Header=BB10_5 Depth=1
	movl	-24(%rbp), %eax
	movl	%eax, -88(%rbp)                 ## 4-byte Spill
LBB10_12:                               ##   in Loop: Header=BB10_5 Depth=1
	movl	-88(%rbp), %eax                 ## 4-byte Reload
	subl	-68(%rbp), %eax
	cmpl	-52(%rbp), %eax
	jge	LBB10_17
## %bb.13:                              ##   in Loop: Header=BB10_5 Depth=1
	movl	-60(%rbp), %eax
	cmpl	-24(%rbp), %eax
	jge	LBB10_15
## %bb.14:                              ##   in Loop: Header=BB10_5 Depth=1
	movl	-60(%rbp), %eax
	movl	%eax, -92(%rbp)                 ## 4-byte Spill
	jmp	LBB10_16
LBB10_15:                               ##   in Loop: Header=BB10_5 Depth=1
	movl	-24(%rbp), %eax
	movl	%eax, -92(%rbp)                 ## 4-byte Spill
LBB10_16:                               ##   in Loop: Header=BB10_5 Depth=1
	movl	-92(%rbp), %eax                 ## 4-byte Reload
	subl	-68(%rbp), %eax
	movl	%eax, -96(%rbp)                 ## 4-byte Spill
	jmp	LBB10_18
LBB10_17:                               ##   in Loop: Header=BB10_5 Depth=1
	movl	-52(%rbp), %eax
	movl	%eax, -96(%rbp)                 ## 4-byte Spill
LBB10_18:                               ##   in Loop: Header=BB10_5 Depth=1
	movl	-96(%rbp), %eax                 ## 4-byte Reload
	movl	%eax, -72(%rbp)
	movl	-60(%rbp), %eax
	subl	-68(%rbp), %eax
	movl	-72(%rbp), %esi
	movq	-32(%rbp), %rcx
	movl	-24(%rbp), %edx
	imull	-68(%rbp), %edx
	addl	-68(%rbp), %edx
	movslq	%edx, %rdi
	shlq	$3, %rdi
	addq	%rdi, %rcx
	movl	-64(%rbp), %edx
	movq	-48(%rbp), %rdi
	movslq	-68(%rbp), %r8
	shlq	$2, %r8
	addq	%r8, %rdi
	movq	%rdi, -104(%rbp)                ## 8-byte Spill
	movl	%eax, %edi
	movl	%edx, -108(%rbp)                ## 4-byte Spill
	movq	%rcx, %rdx
	movl	-108(%rbp), %ecx                ## 4-byte Reload
	movq	-104(%rbp), %r8                 ## 8-byte Reload
	callq	_dgetf2_1
	movl	%eax, -56(%rbp)
	cmpl	$0, -56(%rbp)
	je	LBB10_20
## %bb.19:
	movl	-56(%rbp), %eax
	movl	%eax, -20(%rbp)
	jmp	LBB10_35
LBB10_20:                               ##   in Loop: Header=BB10_5 Depth=1
	movl	-68(%rbp), %eax
	movl	%eax, -76(%rbp)
LBB10_21:                               ##   Parent Loop BB10_5 Depth=1
                                        ## =>  This Inner Loop Header: Depth=2
	movl	-76(%rbp), %eax
	movl	-60(%rbp), %ecx
	movl	-68(%rbp), %edx
	addl	-72(%rbp), %edx
	cmpl	%edx, %ecx
	movl	%eax, -112(%rbp)                ## 4-byte Spill
	jge	LBB10_23
## %bb.22:                              ##   in Loop: Header=BB10_21 Depth=2
	movl	-60(%rbp), %eax
	movl	%eax, -116(%rbp)                ## 4-byte Spill
	jmp	LBB10_24
LBB10_23:                               ##   in Loop: Header=BB10_21 Depth=2
	movl	-68(%rbp), %eax
	addl	-72(%rbp), %eax
	movl	%eax, -116(%rbp)                ## 4-byte Spill
LBB10_24:                               ##   in Loop: Header=BB10_21 Depth=2
	movl	-116(%rbp), %eax                ## 4-byte Reload
	movl	-112(%rbp), %ecx                ## 4-byte Reload
	cmpl	%eax, %ecx
	jge	LBB10_27
## %bb.25:                              ##   in Loop: Header=BB10_21 Depth=2
	movq	-48(%rbp), %rax
	movslq	-76(%rbp), %rcx
	movl	(%rax,%rcx,4), %edx
	addl	-68(%rbp), %edx
	movq	-48(%rbp), %rax
	movslq	-76(%rbp), %rcx
	movl	%edx, (%rax,%rcx,4)
## %bb.26:                              ##   in Loop: Header=BB10_21 Depth=2
	movl	-76(%rbp), %eax
	addl	$1, %eax
	movl	%eax, -76(%rbp)
	jmp	LBB10_21
LBB10_27:                               ##   in Loop: Header=BB10_5 Depth=1
	movl	-68(%rbp), %edi
	movq	-32(%rbp), %rsi
	movl	-64(%rbp), %edx
	movl	-68(%rbp), %ecx
	movl	-68(%rbp), %eax
	addl	-72(%rbp), %eax
	movq	-48(%rbp), %r9
	movl	%eax, %r8d
	movl	$1, (%rsp)
	callq	_dlaswp_1
	movl	-68(%rbp), %eax
	addl	-72(%rbp), %eax
	cmpl	-24(%rbp), %eax
	jge	LBB10_31
## %bb.28:                              ##   in Loop: Header=BB10_5 Depth=1
	movl	-24(%rbp), %eax
	subl	-68(%rbp), %eax
	subl	-72(%rbp), %eax
	movq	-32(%rbp), %rcx
	imull	$0, -24(%rbp), %edx
	movl	-68(%rbp), %esi
	addl	-72(%rbp), %esi
	addl	%esi, %edx
	movslq	%edx, %rdi
	shlq	$3, %rdi
	addq	%rdi, %rcx
	movl	-64(%rbp), %edx
	movl	-68(%rbp), %esi
	movl	-68(%rbp), %r8d
	addl	-72(%rbp), %r8d
	movq	-48(%rbp), %r9
	movl	%eax, %edi
	movl	%esi, -120(%rbp)                ## 4-byte Spill
	movq	%rcx, %rsi
	movl	-120(%rbp), %ecx                ## 4-byte Reload
	movl	$1, (%rsp)
	callq	_dlaswp_1
	movl	-72(%rbp), %edi
	movl	-24(%rbp), %eax
	subl	-68(%rbp), %eax
	subl	-72(%rbp), %eax
	movq	-32(%rbp), %rsi
	movl	-24(%rbp), %ecx
	imull	-68(%rbp), %ecx
	addl	-68(%rbp), %ecx
	movslq	%ecx, %r9
	shlq	$3, %r9
	addq	%r9, %rsi
	movl	-64(%rbp), %ecx
	movq	-32(%rbp), %r9
	movl	-24(%rbp), %edx
	imull	-68(%rbp), %edx
	movl	-68(%rbp), %r8d
	addl	-72(%rbp), %r8d
	addl	%r8d, %edx
	movslq	%edx, %r10
	shlq	$3, %r10
	addq	%r10, %r9
	movl	-64(%rbp), %edx
	movq	%rsi, -128(%rbp)                ## 8-byte Spill
	movl	%eax, %esi
	movq	-128(%rbp), %r10                ## 8-byte Reload
	movl	%edx, -132(%rbp)                ## 4-byte Spill
	movq	%r10, %rdx
	movq	%r9, %r8
	movl	-132(%rbp), %r9d                ## 4-byte Reload
	callq	_dtrsm_L_1
	movl	-68(%rbp), %eax
	addl	-72(%rbp), %eax
	cmpl	-60(%rbp), %eax
	jge	LBB10_30
## %bb.29:                              ##   in Loop: Header=BB10_5 Depth=1
	vmovsd	LCPI10_0(%rip), %xmm0           ## xmm0 = mem[0],zero
	vmovsd	LCPI10_1(%rip), %xmm1           ## xmm1 = mem[0],zero
	movl	-60(%rbp), %eax
	subl	-68(%rbp), %eax
	subl	-72(%rbp), %eax
	movl	-24(%rbp), %ecx
	subl	-68(%rbp), %ecx
	subl	-72(%rbp), %ecx
	movl	-72(%rbp), %edx
	movq	-32(%rbp), %rsi
	movl	-24(%rbp), %edi
	movl	-68(%rbp), %r8d
	addl	-72(%rbp), %r8d
	imull	%r8d, %edi
	addl	-68(%rbp), %edi
	movslq	%edi, %r9
	shlq	$3, %r9
	addq	%r9, %rsi
	movl	-64(%rbp), %r8d
	movq	-32(%rbp), %r9
	movl	-24(%rbp), %edi
	imull	-68(%rbp), %edi
	movl	-68(%rbp), %r10d
	addl	-72(%rbp), %r10d
	addl	%r10d, %edi
	movslq	%edi, %r11
	shlq	$3, %r11
	addq	%r11, %r9
	movl	-64(%rbp), %edi
	movq	-32(%rbp), %r11
	movl	-24(%rbp), %r10d
	movl	-68(%rbp), %ebx
	addl	-72(%rbp), %ebx
	imull	%ebx, %r10d
	movl	-68(%rbp), %ebx
	addl	-72(%rbp), %ebx
	addl	%ebx, %r10d
	movslq	%r10d, %r14
	shlq	$3, %r14
	addq	%r14, %r11
	movl	-64(%rbp), %r10d
	movl	%edi, -136(%rbp)                ## 4-byte Spill
	movl	%eax, %edi
	movq	%rsi, -144(%rbp)                ## 8-byte Spill
	movl	%ecx, %esi
	movq	-144(%rbp), %rcx                ## 8-byte Reload
	movl	-136(%rbp), %eax                ## 4-byte Reload
	movl	%eax, (%rsp)
	movq	%r11, 8(%rsp)
	movl	%r10d, 16(%rsp)
	callq	_dgemm_1
LBB10_30:                               ##   in Loop: Header=BB10_5 Depth=1
	jmp	LBB10_31
LBB10_31:                               ##   in Loop: Header=BB10_5 Depth=1
	jmp	LBB10_32
LBB10_32:                               ##   in Loop: Header=BB10_5 Depth=1
	movl	-52(%rbp), %eax
	addl	-68(%rbp), %eax
	movl	%eax, -68(%rbp)
	jmp	LBB10_5
LBB10_33:
	jmp	LBB10_34
LBB10_34:
	movl	-24(%rbp), %edi
	movq	-32(%rbp), %rsi
	movq	-48(%rbp), %rdx
	movq	-40(%rbp), %rcx
	callq	_dgetrs_1
	movl	%eax, -56(%rbp)
	movl	-56(%rbp), %eax
	movl	%eax, -20(%rbp)
LBB10_35:
	movl	-20(%rbp), %eax
	addq	$160, %rsp
	popq	%rbx
	popq	%r14
	popq	%rbp
	retq
	.cfi_endproc
                                        ## -- End function
	.p2align	4, 0x90                         ## -- Begin function dlaswp_1
_dlaswp_1:                              ## @dlaswp_1
	.cfi_startproc
## %bb.0:
	pushq	%rbp
	.cfi_def_cfa_offset 16
	.cfi_offset %rbp, -16
	movq	%rsp, %rbp
	.cfi_def_cfa_register %rbp
	subq	$80, %rsp
	movl	16(%rbp), %eax
	xorl	%r10d, %r10d
	movl	%edi, -4(%rbp)
	movq	%rsi, -16(%rbp)
	movl	%edx, -20(%rbp)
	movl	%ecx, -24(%rbp)
	movl	%r8d, -28(%rbp)
	movq	%r9, -40(%rbp)
	cmpl	16(%rbp), %r10d
	setl	%r11b
	xorb	$-1, %r11b
	andb	$1, %r11b
	movzbl	%r11b, %ecx
	movslq	%ecx, %rsi
	cmpq	$0, %rsi
	je	LBB11_2
## %bb.1:
	leaq	L___func__.dlaswp_1(%rip), %rdi
	leaq	L_.str.1(%rip), %rsi
	leaq	L_.str.8(%rip), %rcx
	movl	$385, %edx                      ## imm = 0x181
	callq	___assert_rtn
LBB11_2:
	jmp	LBB11_3
LBB11_3:
	movl	-24(%rbp), %eax
	movl	%eax, -48(%rbp)
	movl	-48(%rbp), %eax
	movl	%eax, -44(%rbp)
	movl	-24(%rbp), %eax
	movl	%eax, -52(%rbp)
LBB11_4:                                ## =>This Loop Header: Depth=1
                                        ##     Child Loop BB11_7 Depth 2
	movl	-52(%rbp), %eax
	cmpl	-28(%rbp), %eax
	jge	LBB11_13
## %bb.5:                               ##   in Loop: Header=BB11_4 Depth=1
	movq	-40(%rbp), %rax
	movslq	-44(%rbp), %rcx
	movl	(%rax,%rcx,4), %edx
	movl	%edx, -60(%rbp)
	movl	-60(%rbp), %edx
	cmpl	-52(%rbp), %edx
	je	LBB11_11
## %bb.6:                               ##   in Loop: Header=BB11_4 Depth=1
	movl	$0, -56(%rbp)
LBB11_7:                                ##   Parent Loop BB11_4 Depth=1
                                        ## =>  This Inner Loop Header: Depth=2
	movl	-56(%rbp), %eax
	cmpl	-4(%rbp), %eax
	jge	LBB11_10
## %bb.8:                               ##   in Loop: Header=BB11_7 Depth=2
	movq	-16(%rbp), %rax
	movl	-20(%rbp), %ecx
	imull	-52(%rbp), %ecx
	addl	-56(%rbp), %ecx
	movslq	%ecx, %rdx
	vmovsd	(%rax,%rdx,8), %xmm0            ## xmm0 = mem[0],zero
	vmovsd	%xmm0, -72(%rbp)
	movq	-16(%rbp), %rax
	movl	-20(%rbp), %ecx
	imull	-60(%rbp), %ecx
	addl	-56(%rbp), %ecx
	movslq	%ecx, %rdx
	vmovsd	(%rax,%rdx,8), %xmm0            ## xmm0 = mem[0],zero
	movq	-16(%rbp), %rax
	movl	-20(%rbp), %ecx
	imull	-52(%rbp), %ecx
	addl	-56(%rbp), %ecx
	movslq	%ecx, %rdx
	vmovsd	%xmm0, (%rax,%rdx,8)
	vmovsd	-72(%rbp), %xmm0                ## xmm0 = mem[0],zero
	movq	-16(%rbp), %rax
	movl	-20(%rbp), %ecx
	imull	-60(%rbp), %ecx
	addl	-56(%rbp), %ecx
	movslq	%ecx, %rdx
	vmovsd	%xmm0, (%rax,%rdx,8)
## %bb.9:                               ##   in Loop: Header=BB11_7 Depth=2
	movl	-56(%rbp), %eax
	addl	$1, %eax
	movl	%eax, -56(%rbp)
	jmp	LBB11_7
LBB11_10:                               ##   in Loop: Header=BB11_4 Depth=1
	jmp	LBB11_11
LBB11_11:                               ##   in Loop: Header=BB11_4 Depth=1
	jmp	LBB11_12
LBB11_12:                               ##   in Loop: Header=BB11_4 Depth=1
	movl	-52(%rbp), %eax
	addl	$1, %eax
	movl	%eax, -52(%rbp)
	movl	16(%rbp), %eax
	addl	-44(%rbp), %eax
	movl	%eax, -44(%rbp)
	jmp	LBB11_4
LBB11_13:
	addq	$80, %rsp
	popq	%rbp
	retq
	.cfi_endproc
                                        ## -- End function
	.section	__TEXT,__literal8,8byte_literals
	.p2align	3                               ## -- Begin function dtrsm_L_1
LCPI12_0:
	.quad	0x3bc79ca10c924223              ## double 9.9999999999999995E-21
	.section	__TEXT,__literal16,16byte_literals
	.p2align	4
LCPI12_1:
	.quad	0x7fffffffffffffff              ## double NaN
	.quad	0x7fffffffffffffff              ## double NaN
	.section	__TEXT,__text,regular,pure_instructions
	.p2align	4, 0x90
_dtrsm_L_1:                             ## @dtrsm_L_1
	.cfi_startproc
## %bb.0:
	pushq	%rbp
	.cfi_def_cfa_offset 16
	.cfi_offset %rbp, -16
	movq	%rsp, %rbp
	.cfi_def_cfa_register %rbp
	movl	%edi, -4(%rbp)
	movl	%esi, -8(%rbp)
	movq	%rdx, -16(%rbp)
	movl	%ecx, -20(%rbp)
	movq	%r8, -32(%rbp)
	movl	%r9d, -36(%rbp)
	movl	$0, -44(%rbp)
LBB12_1:                                ## =>This Loop Header: Depth=1
                                        ##     Child Loop BB12_3 Depth 2
                                        ##       Child Loop BB12_6 Depth 3
	movl	-44(%rbp), %eax
	cmpl	-8(%rbp), %eax
	jge	LBB12_14
## %bb.2:                               ##   in Loop: Header=BB12_1 Depth=1
	movl	$0, -48(%rbp)
LBB12_3:                                ##   Parent Loop BB12_1 Depth=1
                                        ## =>  This Loop Header: Depth=2
                                        ##       Child Loop BB12_6 Depth 3
	movl	-48(%rbp), %eax
	cmpl	-4(%rbp), %eax
	jge	LBB12_12
## %bb.4:                               ##   in Loop: Header=BB12_3 Depth=2
	vmovsd	LCPI12_0(%rip), %xmm0           ## xmm0 = mem[0],zero
	movq	-32(%rbp), %rax
	movl	-36(%rbp), %ecx
	imull	-48(%rbp), %ecx
	addl	-44(%rbp), %ecx
	movslq	%ecx, %rdx
	vmovsd	(%rax,%rdx,8), %xmm1            ## xmm1 = mem[0],zero
	vxorps	%xmm2, %xmm2, %xmm2
	vsubsd	%xmm2, %xmm1, %xmm1
	vmovdqa	LCPI12_1(%rip), %xmm2           ## xmm2 = [NaN,NaN]
	vpand	%xmm2, %xmm1, %xmm1
	vucomisd	%xmm1, %xmm0
	jae	LBB12_10
## %bb.5:                               ##   in Loop: Header=BB12_3 Depth=2
	movl	-48(%rbp), %eax
	addl	$1, %eax
	movl	%eax, -40(%rbp)
LBB12_6:                                ##   Parent Loop BB12_1 Depth=1
                                        ##     Parent Loop BB12_3 Depth=2
                                        ## =>    This Inner Loop Header: Depth=3
	movl	-40(%rbp), %eax
	cmpl	-4(%rbp), %eax
	jge	LBB12_9
## %bb.7:                               ##   in Loop: Header=BB12_6 Depth=3
	movq	-32(%rbp), %rax
	movl	-36(%rbp), %ecx
	imull	-40(%rbp), %ecx
	addl	-44(%rbp), %ecx
	movslq	%ecx, %rdx
	vmovsd	(%rax,%rdx,8), %xmm0            ## xmm0 = mem[0],zero
	movq	-32(%rbp), %rax
	movl	-36(%rbp), %ecx
	imull	-48(%rbp), %ecx
	addl	-44(%rbp), %ecx
	movslq	%ecx, %rdx
	vmovsd	(%rax,%rdx,8), %xmm1            ## xmm1 = mem[0],zero
	movq	-16(%rbp), %rax
	movl	-20(%rbp), %ecx
	imull	-40(%rbp), %ecx
	addl	-48(%rbp), %ecx
	movslq	%ecx, %rdx
	vmulsd	(%rax,%rdx,8), %xmm1, %xmm1
	vsubsd	%xmm1, %xmm0, %xmm0
	movq	-32(%rbp), %rax
	movl	-36(%rbp), %ecx
	imull	-40(%rbp), %ecx
	addl	-44(%rbp), %ecx
	movslq	%ecx, %rdx
	vmovsd	%xmm0, (%rax,%rdx,8)
## %bb.8:                               ##   in Loop: Header=BB12_6 Depth=3
	movl	-40(%rbp), %eax
	addl	$1, %eax
	movl	%eax, -40(%rbp)
	jmp	LBB12_6
LBB12_9:                                ##   in Loop: Header=BB12_3 Depth=2
	jmp	LBB12_10
LBB12_10:                               ##   in Loop: Header=BB12_3 Depth=2
	jmp	LBB12_11
LBB12_11:                               ##   in Loop: Header=BB12_3 Depth=2
	movl	-48(%rbp), %eax
	addl	$1, %eax
	movl	%eax, -48(%rbp)
	jmp	LBB12_3
LBB12_12:                               ##   in Loop: Header=BB12_1 Depth=1
	jmp	LBB12_13
LBB12_13:                               ##   in Loop: Header=BB12_1 Depth=1
	movl	-44(%rbp), %eax
	addl	$1, %eax
	movl	%eax, -44(%rbp)
	jmp	LBB12_1
LBB12_14:
	popq	%rbp
	retq
	.cfi_endproc
                                        ## -- End function
	.section	__TEXT,__literal8,8byte_literals
	.p2align	3                               ## -- Begin function dgemm_1
LCPI13_0:
	.quad	0x3bc79ca10c924223              ## double 9.9999999999999995E-21
LCPI13_2:
	.quad	0x3ff0000000000000              ## double 1
LCPI13_3:
	.quad	0xbff0000000000000              ## double -1
	.section	__TEXT,__literal16,16byte_literals
	.p2align	4
LCPI13_1:
	.quad	0x7fffffffffffffff              ## double NaN
	.quad	0x7fffffffffffffff              ## double NaN
	.section	__TEXT,__text,regular,pure_instructions
	.p2align	4, 0x90
_dgemm_1:                               ## @dgemm_1
	.cfi_startproc
## %bb.0:
	pushq	%rbp
	.cfi_def_cfa_offset 16
	.cfi_offset %rbp, -16
	movq	%rsp, %rbp
	.cfi_def_cfa_register %rbp
	pushq	%rbx
	subq	$88, %rsp
	.cfi_offset %rbx, -24
	movl	32(%rbp), %eax
	movq	24(%rbp), %r10
	movl	16(%rbp), %r11d
	vmovsd	LCPI13_0(%rip), %xmm2           ## xmm2 = mem[0],zero
	vmovsd	LCPI13_2(%rip), %xmm3           ## xmm3 = mem[0],zero
	movl	%edi, -12(%rbp)
	movl	%esi, -16(%rbp)
	movl	%edx, -20(%rbp)
	vmovsd	%xmm0, -32(%rbp)
	movq	%rcx, -40(%rbp)
	movl	%r8d, -44(%rbp)
	movq	%r9, -56(%rbp)
	vmovsd	%xmm1, -64(%rbp)
	vmovsd	-64(%rbp), %xmm0                ## xmm0 = mem[0],zero
	vsubsd	%xmm3, %xmm0, %xmm0
	vmovdqa	LCPI13_1(%rip), %xmm1           ## xmm1 = [NaN,NaN]
	vpand	%xmm1, %xmm0, %xmm0
	vucomisd	%xmm0, %xmm2
	setae	%bl
	xorb	$-1, %bl
	andb	$1, %bl
	movzbl	%bl, %edx
	movslq	%edx, %rcx
	cmpq	$0, %rcx
	je	LBB13_2
## %bb.1:
	leaq	L___func__.dgemm_1(%rip), %rdi
	leaq	L_.str.1(%rip), %rsi
	leaq	L_.str.2(%rip), %rcx
	movl	$454, %edx                      ## imm = 0x1C6
	callq	___assert_rtn
LBB13_2:
	jmp	LBB13_3
LBB13_3:
	vmovsd	LCPI13_0(%rip), %xmm0           ## xmm0 = mem[0],zero
	vmovsd	LCPI13_3(%rip), %xmm1           ## xmm1 = mem[0],zero
	vmovsd	-32(%rbp), %xmm2                ## xmm2 = mem[0],zero
	vsubsd	%xmm1, %xmm2, %xmm1
	vmovdqa	LCPI13_1(%rip), %xmm2           ## xmm2 = [NaN,NaN]
	vpand	%xmm2, %xmm1, %xmm1
	vucomisd	%xmm1, %xmm0
	setae	%al
	xorb	$-1, %al
	andb	$1, %al
	movzbl	%al, %ecx
	movslq	%ecx, %rdx
	cmpq	$0, %rdx
	je	LBB13_5
## %bb.4:
	leaq	L___func__.dgemm_1(%rip), %rdi
	leaq	L_.str.1(%rip), %rsi
	leaq	L_.str.3(%rip), %rcx
	movl	$455, %edx                      ## imm = 0x1C7
	callq	___assert_rtn
LBB13_5:
	jmp	LBB13_6
LBB13_6:
	movl	$0, -68(%rbp)
LBB13_7:                                ## =>This Loop Header: Depth=1
                                        ##     Child Loop BB13_9 Depth 2
                                        ##       Child Loop BB13_11 Depth 3
	movl	-68(%rbp), %eax
	cmpl	-12(%rbp), %eax
	jge	LBB13_18
## %bb.8:                               ##   in Loop: Header=BB13_7 Depth=1
	movl	$0, -72(%rbp)
LBB13_9:                                ##   Parent Loop BB13_7 Depth=1
                                        ## =>  This Loop Header: Depth=2
                                        ##       Child Loop BB13_11 Depth 3
	movl	-72(%rbp), %eax
	cmpl	-16(%rbp), %eax
	jge	LBB13_16
## %bb.10:                              ##   in Loop: Header=BB13_9 Depth=2
	movq	24(%rbp), %rax
	movl	32(%rbp), %ecx
	imull	-68(%rbp), %ecx
	addl	-72(%rbp), %ecx
	movslq	%ecx, %rdx
	vmovsd	(%rax,%rdx,8), %xmm0            ## xmm0 = mem[0],zero
	vmovsd	%xmm0, -88(%rbp)
	movl	$0, -76(%rbp)
LBB13_11:                               ##   Parent Loop BB13_7 Depth=1
                                        ##     Parent Loop BB13_9 Depth=2
                                        ## =>    This Inner Loop Header: Depth=3
	movl	-76(%rbp), %eax
	cmpl	-20(%rbp), %eax
	jge	LBB13_14
## %bb.12:                              ##   in Loop: Header=BB13_11 Depth=3
	vmovsd	-32(%rbp), %xmm0                ## xmm0 = mem[0],zero
	movq	-40(%rbp), %rax
	movl	-44(%rbp), %ecx
	imull	-68(%rbp), %ecx
	addl	-76(%rbp), %ecx
	movslq	%ecx, %rdx
	vmulsd	(%rax,%rdx,8), %xmm0, %xmm0
	movq	-56(%rbp), %rax
	movl	16(%rbp), %ecx
	imull	-76(%rbp), %ecx
	addl	-72(%rbp), %ecx
	movslq	%ecx, %rdx
	vmulsd	(%rax,%rdx,8), %xmm0, %xmm0
	vaddsd	-88(%rbp), %xmm0, %xmm0
	vmovsd	%xmm0, -88(%rbp)
## %bb.13:                              ##   in Loop: Header=BB13_11 Depth=3
	movl	-76(%rbp), %eax
	addl	$1, %eax
	movl	%eax, -76(%rbp)
	jmp	LBB13_11
LBB13_14:                               ##   in Loop: Header=BB13_9 Depth=2
	vmovsd	-88(%rbp), %xmm0                ## xmm0 = mem[0],zero
	movq	24(%rbp), %rax
	movl	32(%rbp), %ecx
	imull	-68(%rbp), %ecx
	addl	-72(%rbp), %ecx
	movslq	%ecx, %rdx
	vmovsd	%xmm0, (%rax,%rdx,8)
## %bb.15:                              ##   in Loop: Header=BB13_9 Depth=2
	movl	-72(%rbp), %eax
	addl	$1, %eax
	movl	%eax, -72(%rbp)
	jmp	LBB13_9
LBB13_16:                               ##   in Loop: Header=BB13_7 Depth=1
	jmp	LBB13_17
LBB13_17:                               ##   in Loop: Header=BB13_7 Depth=1
	movl	-68(%rbp), %eax
	addl	$1, %eax
	movl	%eax, -68(%rbp)
	jmp	LBB13_7
LBB13_18:
	addq	$88, %rsp
	popq	%rbx
	popq	%rbp
	retq
	.cfi_endproc
                                        ## -- End function
	.p2align	4, 0x90                         ## -- Begin function dgetrs_1
_dgetrs_1:                              ## @dgetrs_1
	.cfi_startproc
## %bb.0:
	pushq	%rbp
	.cfi_def_cfa_offset 16
	.cfi_offset %rbp, -16
	movq	%rsp, %rbp
	.cfi_def_cfa_register %rbp
	subq	$48, %rsp
	xorl	%eax, %eax
	movl	%edi, -4(%rbp)
	movq	%rsi, -16(%rbp)
	movq	%rdx, -24(%rbp)
	movq	%rcx, -32(%rbp)
	movq	-32(%rbp), %rsi
	movl	-4(%rbp), %r8d
	movq	-24(%rbp), %r9
	movl	$1, %edi
	movl	%edi, -36(%rbp)                 ## 4-byte Spill
	movl	-36(%rbp), %edx                 ## 4-byte Reload
	movl	%eax, %ecx
	movl	$1, (%rsp)
	callq	_dlaswp_1
	movl	-4(%rbp), %edi
	movq	-16(%rbp), %rdx
	movl	-4(%rbp), %ecx
	movq	-32(%rbp), %r8
	movl	$1, %eax
	movl	%eax, %esi
	movl	%eax, %r9d
	callq	_dtrsm_L_1
	movl	-4(%rbp), %edi
	movq	-16(%rbp), %rdx
	movl	-4(%rbp), %ecx
	movq	-32(%rbp), %r8
	movl	$1, %eax
	movl	%eax, %esi
	movl	%eax, %r9d
	callq	_dtrsm_U_1
	xorl	%eax, %eax
	addq	$48, %rsp
	popq	%rbp
	retq
	.cfi_endproc
                                        ## -- End function
	.section	__TEXT,__literal8,8byte_literals
	.p2align	3                               ## -- Begin function dgetf2_2
LCPI15_0:
	.quad	0x3bc79ca10c924223              ## double 9.9999999999999995E-21
LCPI15_2:
	.quad	0x3ff0000000000000              ## double 1
	.section	__TEXT,__literal16,16byte_literals
	.p2align	4
LCPI15_1:
	.quad	0x7fffffffffffffff              ## double NaN
	.quad	0x7fffffffffffffff              ## double NaN
	.section	__TEXT,__text,regular,pure_instructions
	.globl	_dgetf2_2
	.p2align	4, 0x90
_dgetf2_2:                              ## @dgetf2_2
	.cfi_startproc
## %bb.0:
	pushq	%rbp
	.cfi_def_cfa_offset 16
	.cfi_offset %rbp, -16
	movq	%rsp, %rbp
	.cfi_def_cfa_register %rbp
	subq	$240, %rsp
	movl	%edi, -8(%rbp)
	movl	%esi, -12(%rbp)
	movq	%rdx, -24(%rbp)
	movl	%ecx, -28(%rbp)
	movq	%r8, -40(%rbp)
	cmpl	$0, -8(%rbp)
	je	LBB15_2
## %bb.1:
	cmpl	$0, -12(%rbp)
	jne	LBB15_3
LBB15_2:
	movl	$0, -4(%rbp)
	jmp	LBB15_36
LBB15_3:
	movl	$0, -44(%rbp)
LBB15_4:                                ## =>This Loop Header: Depth=1
                                        ##     Child Loop BB15_13 Depth 2
                                        ##     Child Loop BB15_21 Depth 2
                                        ##       Child Loop BB15_23 Depth 3
                                        ##       Child Loop BB15_27 Depth 3
	movl	-44(%rbp), %eax
	movl	-8(%rbp), %ecx
	cmpl	-12(%rbp), %ecx
	movl	%eax, -204(%rbp)                ## 4-byte Spill
	jge	LBB15_6
## %bb.5:                               ##   in Loop: Header=BB15_4 Depth=1
	movl	-8(%rbp), %eax
	movl	%eax, -208(%rbp)                ## 4-byte Spill
	jmp	LBB15_7
LBB15_6:                                ##   in Loop: Header=BB15_4 Depth=1
	movl	-12(%rbp), %eax
	movl	%eax, -208(%rbp)                ## 4-byte Spill
LBB15_7:                                ##   in Loop: Header=BB15_4 Depth=1
	movl	-208(%rbp), %eax                ## 4-byte Reload
	movl	-204(%rbp), %ecx                ## 4-byte Reload
	cmpl	%eax, %ecx
	jge	LBB15_35
## %bb.8:                               ##   in Loop: Header=BB15_4 Depth=1
	movl	-44(%rbp), %eax
	movl	-8(%rbp), %ecx
	subl	-44(%rbp), %ecx
	movq	-24(%rbp), %rdx
	movl	-28(%rbp), %esi
	imull	-44(%rbp), %esi
	addl	-44(%rbp), %esi
	movslq	%esi, %rdi
	shlq	$3, %rdi
	addq	%rdi, %rdx
	movl	-28(%rbp), %esi
	movl	%ecx, %edi
	movl	%esi, -212(%rbp)                ## 4-byte Spill
	movq	%rdx, %rsi
	movl	-212(%rbp), %edx                ## 4-byte Reload
	movl	%eax, -216(%rbp)                ## 4-byte Spill
	callq	_isamax_2
	vmovsd	LCPI15_0(%rip), %xmm0           ## xmm0 = mem[0],zero
	movl	-216(%rbp), %ecx                ## 4-byte Reload
	addl	%eax, %ecx
	movl	%ecx, -56(%rbp)
	movq	-24(%rbp), %rsi
	movl	-28(%rbp), %eax
	imull	-56(%rbp), %eax
	addl	-44(%rbp), %eax
	movslq	%eax, %r8
	vmovsd	(%rsi,%r8,8), %xmm1             ## xmm1 = mem[0],zero
	vmovsd	%xmm1, -64(%rbp)
	vmovsd	-64(%rbp), %xmm1                ## xmm1 = mem[0],zero
	vxorps	%xmm2, %xmm2, %xmm2
	vsubsd	%xmm2, %xmm1, %xmm1
	vmovdqa	LCPI15_1(%rip), %xmm2           ## xmm2 = [NaN,NaN]
	vpand	%xmm2, %xmm1, %xmm1
	vucomisd	%xmm1, %xmm0
	jb	LBB15_10
## %bb.9:
	movq	___stderrp@GOTPCREL(%rip), %rax
	movq	(%rax), %rdi
	leaq	L_.str(%rip), %rsi
	movb	$0, %al
	callq	_fprintf
	movl	$-1, -4(%rbp)
	jmp	LBB15_36
LBB15_10:                               ##   in Loop: Header=BB15_4 Depth=1
	movl	-56(%rbp), %eax
	movq	-40(%rbp), %rcx
	movslq	-44(%rbp), %rdx
	movl	%eax, (%rcx,%rdx,4)
	movl	-44(%rbp), %eax
	cmpl	-56(%rbp), %eax
	je	LBB15_12
## %bb.11:                              ##   in Loop: Header=BB15_4 Depth=1
	movl	-12(%rbp), %edi
	movq	-24(%rbp), %rax
	movl	-28(%rbp), %ecx
	imull	-44(%rbp), %ecx
	addl	$0, %ecx
	movslq	%ecx, %rdx
	shlq	$3, %rdx
	addq	%rdx, %rax
	movq	-24(%rbp), %rdx
	movl	-28(%rbp), %ecx
	imull	-56(%rbp), %ecx
	addl	$0, %ecx
	movslq	%ecx, %rsi
	shlq	$3, %rsi
	addq	%rsi, %rdx
	movq	%rax, %rsi
	movl	$1, %ecx
	movq	%rdx, -224(%rbp)                ## 8-byte Spill
	movl	%ecx, %edx
	movq	-224(%rbp), %rax                ## 8-byte Reload
	movl	%ecx, -228(%rbp)                ## 4-byte Spill
	movq	%rax, %rcx
	movl	-228(%rbp), %r8d                ## 4-byte Reload
	callq	_dswap_2
LBB15_12:                               ##   in Loop: Header=BB15_4 Depth=1
	vmovsd	LCPI15_2(%rip), %xmm0           ## xmm0 = mem[0],zero
	movq	-24(%rbp), %rax
	movl	-28(%rbp), %ecx
	imull	-44(%rbp), %ecx
	addl	-44(%rbp), %ecx
	movslq	%ecx, %rdx
	vdivsd	(%rax,%rdx,8), %xmm0, %xmm0
	vmovsd	%xmm0, -72(%rbp)
	movl	-44(%rbp), %ecx
	addl	$1, %ecx
	movl	%ecx, -48(%rbp)
LBB15_13:                               ##   Parent Loop BB15_4 Depth=1
                                        ## =>  This Inner Loop Header: Depth=2
	movl	-48(%rbp), %eax
	cmpl	-8(%rbp), %eax
	jge	LBB15_16
## %bb.14:                              ##   in Loop: Header=BB15_13 Depth=2
	vmovsd	-72(%rbp), %xmm0                ## xmm0 = mem[0],zero
	movq	-24(%rbp), %rax
	movl	-28(%rbp), %ecx
	imull	-48(%rbp), %ecx
	addl	-44(%rbp), %ecx
	movslq	%ecx, %rdx
	vmulsd	(%rax,%rdx,8), %xmm0, %xmm0
	movq	-24(%rbp), %rax
	movl	-28(%rbp), %ecx
	imull	-48(%rbp), %ecx
	addl	-44(%rbp), %ecx
	movslq	%ecx, %rdx
	vmovsd	%xmm0, (%rax,%rdx,8)
## %bb.15:                              ##   in Loop: Header=BB15_13 Depth=2
	movl	-48(%rbp), %eax
	addl	$1, %eax
	movl	%eax, -48(%rbp)
	jmp	LBB15_13
LBB15_16:                               ##   in Loop: Header=BB15_4 Depth=1
	movl	-44(%rbp), %eax
	movl	-8(%rbp), %ecx
	cmpl	-12(%rbp), %ecx
	movl	%eax, -232(%rbp)                ## 4-byte Spill
	jge	LBB15_18
## %bb.17:                              ##   in Loop: Header=BB15_4 Depth=1
	movl	-8(%rbp), %eax
	movl	%eax, -236(%rbp)                ## 4-byte Spill
	jmp	LBB15_19
LBB15_18:                               ##   in Loop: Header=BB15_4 Depth=1
	movl	-12(%rbp), %eax
	movl	%eax, -236(%rbp)                ## 4-byte Spill
LBB15_19:                               ##   in Loop: Header=BB15_4 Depth=1
	movl	-236(%rbp), %eax                ## 4-byte Reload
	movl	-232(%rbp), %ecx                ## 4-byte Reload
	cmpl	%eax, %ecx
	jge	LBB15_33
## %bb.20:                              ##   in Loop: Header=BB15_4 Depth=1
	movl	-44(%rbp), %eax
	addl	$1, %eax
	movl	%eax, -48(%rbp)
LBB15_21:                               ##   Parent Loop BB15_4 Depth=1
                                        ## =>  This Loop Header: Depth=2
                                        ##       Child Loop BB15_23 Depth 3
                                        ##       Child Loop BB15_27 Depth 3
	movl	-48(%rbp), %eax
	cmpl	-8(%rbp), %eax
	jge	LBB15_32
## %bb.22:                              ##   in Loop: Header=BB15_21 Depth=2
	movq	-24(%rbp), %rax
	movl	-28(%rbp), %ecx
	imull	-48(%rbp), %ecx
	addl	-44(%rbp), %ecx
	movslq	%ecx, %rdx
	vmovsd	(%rax,%rdx,8), %xmm0            ## xmm0 = mem[0],zero
	vmovq	%xmm0, %rax
	movabsq	$-9223372036854775808, %rdx     ## imm = 0x8000000000000000
	xorq	%rdx, %rax
	vmovq	%rax, %xmm0
	vmovsd	%xmm0, -72(%rbp)
	movl	-44(%rbp), %ecx
	addl	$1, %ecx
	movl	%ecx, -52(%rbp)
LBB15_23:                               ##   Parent Loop BB15_4 Depth=1
                                        ##     Parent Loop BB15_21 Depth=2
                                        ## =>    This Inner Loop Header: Depth=3
	movl	-52(%rbp), %eax
	movl	-12(%rbp), %ecx
	subl	$7, %ecx
	cmpl	%ecx, %eax
	jge	LBB15_26
## %bb.24:                              ##   in Loop: Header=BB15_23 Depth=3
	movq	-24(%rbp), %rax
	movl	-28(%rbp), %ecx
	imull	-48(%rbp), %ecx
	movl	-52(%rbp), %edx
	addl	$0, %edx
	addl	%edx, %ecx
	movslq	%ecx, %rsi
	vmovsd	(%rax,%rsi,8), %xmm0            ## xmm0 = mem[0],zero
	vmovsd	%xmm0, -80(%rbp)
	movq	-24(%rbp), %rax
	movl	-28(%rbp), %ecx
	imull	-48(%rbp), %ecx
	movl	-52(%rbp), %edx
	addl	$1, %edx
	addl	%edx, %ecx
	movslq	%ecx, %rsi
	vmovsd	(%rax,%rsi,8), %xmm0            ## xmm0 = mem[0],zero
	vmovsd	%xmm0, -88(%rbp)
	movq	-24(%rbp), %rax
	movl	-28(%rbp), %ecx
	imull	-48(%rbp), %ecx
	movl	-52(%rbp), %edx
	addl	$2, %edx
	addl	%edx, %ecx
	movslq	%ecx, %rsi
	vmovsd	(%rax,%rsi,8), %xmm0            ## xmm0 = mem[0],zero
	vmovsd	%xmm0, -96(%rbp)
	movq	-24(%rbp), %rax
	movl	-28(%rbp), %ecx
	imull	-48(%rbp), %ecx
	movl	-52(%rbp), %edx
	addl	$3, %edx
	addl	%edx, %ecx
	movslq	%ecx, %rsi
	vmovsd	(%rax,%rsi,8), %xmm0            ## xmm0 = mem[0],zero
	vmovsd	%xmm0, -104(%rbp)
	movq	-24(%rbp), %rax
	movl	-28(%rbp), %ecx
	imull	-48(%rbp), %ecx
	movl	-52(%rbp), %edx
	addl	$4, %edx
	addl	%edx, %ecx
	movslq	%ecx, %rsi
	vmovsd	(%rax,%rsi,8), %xmm0            ## xmm0 = mem[0],zero
	vmovsd	%xmm0, -112(%rbp)
	movq	-24(%rbp), %rax
	movl	-28(%rbp), %ecx
	imull	-48(%rbp), %ecx
	movl	-52(%rbp), %edx
	addl	$5, %edx
	addl	%edx, %ecx
	movslq	%ecx, %rsi
	vmovsd	(%rax,%rsi,8), %xmm0            ## xmm0 = mem[0],zero
	vmovsd	%xmm0, -120(%rbp)
	movq	-24(%rbp), %rax
	movl	-28(%rbp), %ecx
	imull	-48(%rbp), %ecx
	movl	-52(%rbp), %edx
	addl	$6, %edx
	addl	%edx, %ecx
	movslq	%ecx, %rsi
	vmovsd	(%rax,%rsi,8), %xmm0            ## xmm0 = mem[0],zero
	vmovsd	%xmm0, -128(%rbp)
	movq	-24(%rbp), %rax
	movl	-28(%rbp), %ecx
	imull	-48(%rbp), %ecx
	movl	-52(%rbp), %edx
	addl	$7, %edx
	addl	%edx, %ecx
	movslq	%ecx, %rsi
	vmovsd	(%rax,%rsi,8), %xmm0            ## xmm0 = mem[0],zero
	vmovsd	%xmm0, -136(%rbp)
	movq	-24(%rbp), %rax
	movl	-28(%rbp), %ecx
	imull	-44(%rbp), %ecx
	movl	-52(%rbp), %edx
	addl	$0, %edx
	addl	%edx, %ecx
	movslq	%ecx, %rsi
	vmovsd	(%rax,%rsi,8), %xmm0            ## xmm0 = mem[0],zero
	vmovsd	%xmm0, -144(%rbp)
	movq	-24(%rbp), %rax
	movl	-28(%rbp), %ecx
	imull	-44(%rbp), %ecx
	movl	-52(%rbp), %edx
	addl	$1, %edx
	addl	%edx, %ecx
	movslq	%ecx, %rsi
	vmovsd	(%rax,%rsi,8), %xmm0            ## xmm0 = mem[0],zero
	vmovsd	%xmm0, -152(%rbp)
	movq	-24(%rbp), %rax
	movl	-28(%rbp), %ecx
	imull	-44(%rbp), %ecx
	movl	-52(%rbp), %edx
	addl	$2, %edx
	addl	%edx, %ecx
	movslq	%ecx, %rsi
	vmovsd	(%rax,%rsi,8), %xmm0            ## xmm0 = mem[0],zero
	vmovsd	%xmm0, -160(%rbp)
	movq	-24(%rbp), %rax
	movl	-28(%rbp), %ecx
	imull	-44(%rbp), %ecx
	movl	-52(%rbp), %edx
	addl	$3, %edx
	addl	%edx, %ecx
	movslq	%ecx, %rsi
	vmovsd	(%rax,%rsi,8), %xmm0            ## xmm0 = mem[0],zero
	vmovsd	%xmm0, -168(%rbp)
	movq	-24(%rbp), %rax
	movl	-28(%rbp), %ecx
	imull	-44(%rbp), %ecx
	movl	-52(%rbp), %edx
	addl	$4, %edx
	addl	%edx, %ecx
	movslq	%ecx, %rsi
	vmovsd	(%rax,%rsi,8), %xmm0            ## xmm0 = mem[0],zero
	vmovsd	%xmm0, -176(%rbp)
	movq	-24(%rbp), %rax
	movl	-28(%rbp), %ecx
	imull	-44(%rbp), %ecx
	movl	-52(%rbp), %edx
	addl	$5, %edx
	addl	%edx, %ecx
	movslq	%ecx, %rsi
	vmovsd	(%rax,%rsi,8), %xmm0            ## xmm0 = mem[0],zero
	vmovsd	%xmm0, -184(%rbp)
	movq	-24(%rbp), %rax
	movl	-28(%rbp), %ecx
	imull	-44(%rbp), %ecx
	movl	-52(%rbp), %edx
	addl	$6, %edx
	addl	%edx, %ecx
	movslq	%ecx, %rsi
	vmovsd	(%rax,%rsi,8), %xmm0            ## xmm0 = mem[0],zero
	vmovsd	%xmm0, -192(%rbp)
	movq	-24(%rbp), %rax
	movl	-28(%rbp), %ecx
	imull	-44(%rbp), %ecx
	movl	-52(%rbp), %edx
	addl	$7, %edx
	addl	%edx, %ecx
	movslq	%ecx, %rsi
	vmovsd	(%rax,%rsi,8), %xmm0            ## xmm0 = mem[0],zero
	vmovsd	%xmm0, -200(%rbp)
	vmovsd	-72(%rbp), %xmm0                ## xmm0 = mem[0],zero
	vmulsd	-144(%rbp), %xmm0, %xmm0
	vaddsd	-80(%rbp), %xmm0, %xmm0
	movq	-24(%rbp), %rax
	movl	-28(%rbp), %ecx
	imull	-48(%rbp), %ecx
	movl	-52(%rbp), %edx
	addl	$0, %edx
	addl	%edx, %ecx
	movslq	%ecx, %rsi
	vmovsd	%xmm0, (%rax,%rsi,8)
	vmovsd	-72(%rbp), %xmm0                ## xmm0 = mem[0],zero
	vmulsd	-152(%rbp), %xmm0, %xmm0
	vaddsd	-88(%rbp), %xmm0, %xmm0
	movq	-24(%rbp), %rax
	movl	-28(%rbp), %ecx
	imull	-48(%rbp), %ecx
	movl	-52(%rbp), %edx
	addl	$1, %edx
	addl	%edx, %ecx
	movslq	%ecx, %rsi
	vmovsd	%xmm0, (%rax,%rsi,8)
	vmovsd	-72(%rbp), %xmm0                ## xmm0 = mem[0],zero
	vmulsd	-160(%rbp), %xmm0, %xmm0
	vaddsd	-96(%rbp), %xmm0, %xmm0
	movq	-24(%rbp), %rax
	movl	-28(%rbp), %ecx
	imull	-48(%rbp), %ecx
	movl	-52(%rbp), %edx
	addl	$2, %edx
	addl	%edx, %ecx
	movslq	%ecx, %rsi
	vmovsd	%xmm0, (%rax,%rsi,8)
	vmovsd	-72(%rbp), %xmm0                ## xmm0 = mem[0],zero
	vmulsd	-168(%rbp), %xmm0, %xmm0
	vaddsd	-104(%rbp), %xmm0, %xmm0
	movq	-24(%rbp), %rax
	movl	-28(%rbp), %ecx
	imull	-48(%rbp), %ecx
	movl	-52(%rbp), %edx
	addl	$3, %edx
	addl	%edx, %ecx
	movslq	%ecx, %rsi
	vmovsd	%xmm0, (%rax,%rsi,8)
	vmovsd	-72(%rbp), %xmm0                ## xmm0 = mem[0],zero
	vmulsd	-176(%rbp), %xmm0, %xmm0
	vaddsd	-112(%rbp), %xmm0, %xmm0
	movq	-24(%rbp), %rax
	movl	-28(%rbp), %ecx
	imull	-48(%rbp), %ecx
	movl	-52(%rbp), %edx
	addl	$4, %edx
	addl	%edx, %ecx
	movslq	%ecx, %rsi
	vmovsd	%xmm0, (%rax,%rsi,8)
	vmovsd	-72(%rbp), %xmm0                ## xmm0 = mem[0],zero
	vmulsd	-184(%rbp), %xmm0, %xmm0
	vaddsd	-120(%rbp), %xmm0, %xmm0
	movq	-24(%rbp), %rax
	movl	-28(%rbp), %ecx
	imull	-48(%rbp), %ecx
	movl	-52(%rbp), %edx
	addl	$5, %edx
	addl	%edx, %ecx
	movslq	%ecx, %rsi
	vmovsd	%xmm0, (%rax,%rsi,8)
	vmovsd	-72(%rbp), %xmm0                ## xmm0 = mem[0],zero
	vmulsd	-192(%rbp), %xmm0, %xmm0
	vaddsd	-128(%rbp), %xmm0, %xmm0
	movq	-24(%rbp), %rax
	movl	-28(%rbp), %ecx
	imull	-48(%rbp), %ecx
	movl	-52(%rbp), %edx
	addl	$6, %edx
	addl	%edx, %ecx
	movslq	%ecx, %rsi
	vmovsd	%xmm0, (%rax,%rsi,8)
	vmovsd	-72(%rbp), %xmm0                ## xmm0 = mem[0],zero
	vmulsd	-200(%rbp), %xmm0, %xmm0
	vaddsd	-136(%rbp), %xmm0, %xmm0
	movq	-24(%rbp), %rax
	movl	-28(%rbp), %ecx
	imull	-48(%rbp), %ecx
	movl	-52(%rbp), %edx
	addl	$7, %edx
	addl	%edx, %ecx
	movslq	%ecx, %rsi
	vmovsd	%xmm0, (%rax,%rsi,8)
## %bb.25:                              ##   in Loop: Header=BB15_23 Depth=3
	movl	-52(%rbp), %eax
	addl	$8, %eax
	movl	%eax, -52(%rbp)
	jmp	LBB15_23
LBB15_26:                               ##   in Loop: Header=BB15_21 Depth=2
	jmp	LBB15_27
LBB15_27:                               ##   Parent Loop BB15_4 Depth=1
                                        ##     Parent Loop BB15_21 Depth=2
                                        ## =>    This Inner Loop Header: Depth=3
	movl	-52(%rbp), %eax
	cmpl	-12(%rbp), %eax
	jge	LBB15_30
## %bb.28:                              ##   in Loop: Header=BB15_27 Depth=3
	movq	-24(%rbp), %rax
	movl	-28(%rbp), %ecx
	imull	-48(%rbp), %ecx
	movl	-52(%rbp), %edx
	addl	$0, %edx
	addl	%edx, %ecx
	movslq	%ecx, %rsi
	vmovsd	(%rax,%rsi,8), %xmm0            ## xmm0 = mem[0],zero
	vmovsd	%xmm0, -80(%rbp)
	movq	-24(%rbp), %rax
	movl	-28(%rbp), %ecx
	imull	-44(%rbp), %ecx
	movl	-52(%rbp), %edx
	addl	$0, %edx
	addl	%edx, %ecx
	movslq	%ecx, %rsi
	vmovsd	(%rax,%rsi,8), %xmm0            ## xmm0 = mem[0],zero
	vmovsd	%xmm0, -144(%rbp)
	vmovsd	-72(%rbp), %xmm0                ## xmm0 = mem[0],zero
	vmulsd	-144(%rbp), %xmm0, %xmm0
	vaddsd	-80(%rbp), %xmm0, %xmm0
	movq	-24(%rbp), %rax
	movl	-28(%rbp), %ecx
	imull	-48(%rbp), %ecx
	movl	-52(%rbp), %edx
	addl	$0, %edx
	addl	%edx, %ecx
	movslq	%ecx, %rsi
	vmovsd	%xmm0, (%rax,%rsi,8)
## %bb.29:                              ##   in Loop: Header=BB15_27 Depth=3
	movl	-52(%rbp), %eax
	addl	$1, %eax
	movl	%eax, -52(%rbp)
	jmp	LBB15_27
LBB15_30:                               ##   in Loop: Header=BB15_21 Depth=2
	jmp	LBB15_31
LBB15_31:                               ##   in Loop: Header=BB15_21 Depth=2
	movl	-48(%rbp), %eax
	addl	$1, %eax
	movl	%eax, -48(%rbp)
	jmp	LBB15_21
LBB15_32:                               ##   in Loop: Header=BB15_4 Depth=1
	jmp	LBB15_33
LBB15_33:                               ##   in Loop: Header=BB15_4 Depth=1
	jmp	LBB15_34
LBB15_34:                               ##   in Loop: Header=BB15_4 Depth=1
	movl	-44(%rbp), %eax
	addl	$1, %eax
	movl	%eax, -44(%rbp)
	jmp	LBB15_4
LBB15_35:
	movl	$0, -4(%rbp)
LBB15_36:
	movl	-4(%rbp), %eax
	addq	$240, %rsp
	popq	%rbp
	retq
	.cfi_endproc
                                        ## -- End function
	.section	__TEXT,__literal16,16byte_literals
	.p2align	4                               ## -- Begin function isamax_2
LCPI16_0:
	.quad	0x7fffffffffffffff              ## double NaN
	.quad	0x7fffffffffffffff              ## double NaN
	.section	__TEXT,__text,regular,pure_instructions
	.p2align	4, 0x90
_isamax_2:                              ## @isamax_2
	.cfi_startproc
## %bb.0:
	pushq	%rbp
	.cfi_def_cfa_offset 16
	.cfi_offset %rbp, -16
	movq	%rsp, %rbp
	.cfi_def_cfa_register %rbp
	subq	$64, %rsp
	xorl	%eax, %eax
	movl	%edi, -8(%rbp)
	movq	%rsi, -16(%rbp)
	movl	%edx, -20(%rbp)
	cmpl	-8(%rbp), %eax
	setle	%cl
	xorb	$-1, %cl
	andb	$1, %cl
	movzbl	%cl, %eax
	movslq	%eax, %rsi
	cmpq	$0, %rsi
	je	LBB16_2
## %bb.1:
	leaq	L___func__.isamax_2(%rip), %rdi
	leaq	L_.str.1(%rip), %rsi
	leaq	L_.str.10(%rip), %rcx
	movl	$665, %edx                      ## imm = 0x299
	callq	___assert_rtn
LBB16_2:
	jmp	LBB16_3
LBB16_3:
	cmpl	$1, -8(%rbp)
	jl	LBB16_5
## %bb.4:
	cmpl	$0, -20(%rbp)
	jne	LBB16_6
LBB16_5:
	movl	$0, -4(%rbp)
	jmp	LBB16_19
LBB16_6:
	xorl	%eax, %eax
	cmpl	-20(%rbp), %eax
	setl	%cl
	xorb	$-1, %cl
	andb	$1, %cl
	movzbl	%cl, %eax
	movslq	%eax, %rdx
	cmpq	$0, %rdx
	je	LBB16_8
## %bb.7:
	leaq	L___func__.isamax_2(%rip), %rdi
	leaq	L_.str.1(%rip), %rsi
	leaq	L_.str.5(%rip), %rcx
	movl	$671, %edx                      ## imm = 0x29F
	callq	___assert_rtn
LBB16_8:
	jmp	LBB16_9
LBB16_9:
	movq	-16(%rbp), %rax
	vmovsd	(%rax), %xmm0                   ## xmm0 = mem[0],zero
	vmovdqa	LCPI16_0(%rip), %xmm1           ## xmm1 = [NaN,NaN]
	vpand	%xmm1, %xmm0, %xmm0
	vmovsd	%xmm0, -32(%rbp)
	movl	$0, -48(%rbp)
	movl	-20(%rbp), %ecx
	addl	$0, %ecx
	movl	%ecx, -52(%rbp)
	movl	$1, -44(%rbp)
LBB16_10:                               ## =>This Inner Loop Header: Depth=1
	movl	-44(%rbp), %eax
	cmpl	-8(%rbp), %eax
	jge	LBB16_18
## %bb.11:                              ##   in Loop: Header=BB16_10 Depth=1
	movl	-52(%rbp), %eax
	movl	-44(%rbp), %ecx
	imull	-20(%rbp), %ecx
	cmpl	%ecx, %eax
	sete	%dl
	xorb	$-1, %dl
	andb	$1, %dl
	movzbl	%dl, %eax
	movslq	%eax, %rsi
	cmpq	$0, %rsi
	je	LBB16_13
## %bb.12:
	leaq	L___func__.isamax_2(%rip), %rdi
	leaq	L_.str.1(%rip), %rsi
	leaq	L_.str.6(%rip), %rcx
	movl	$684, %edx                      ## imm = 0x2AC
	callq	___assert_rtn
LBB16_13:                               ##   in Loop: Header=BB16_10 Depth=1
	jmp	LBB16_14
LBB16_14:                               ##   in Loop: Header=BB16_10 Depth=1
	movq	-16(%rbp), %rax
	movslq	-52(%rbp), %rcx
	vmovsd	(%rax,%rcx,8), %xmm0            ## xmm0 = mem[0],zero
	vmovdqa	LCPI16_0(%rip), %xmm1           ## xmm1 = [NaN,NaN]
	vpand	%xmm1, %xmm0, %xmm0
	vmovsd	%xmm0, -40(%rbp)
	vmovsd	-40(%rbp), %xmm0                ## xmm0 = mem[0],zero
	vucomisd	-32(%rbp), %xmm0
	jbe	LBB16_16
## %bb.15:                              ##   in Loop: Header=BB16_10 Depth=1
	vmovsd	-40(%rbp), %xmm0                ## xmm0 = mem[0],zero
	vmovsd	%xmm0, -32(%rbp)
	movl	-44(%rbp), %eax
	movl	%eax, -48(%rbp)
LBB16_16:                               ##   in Loop: Header=BB16_10 Depth=1
	jmp	LBB16_17
LBB16_17:                               ##   in Loop: Header=BB16_10 Depth=1
	movl	-44(%rbp), %eax
	addl	$1, %eax
	movl	%eax, -44(%rbp)
	movl	-20(%rbp), %eax
	addl	-52(%rbp), %eax
	movl	%eax, -52(%rbp)
	jmp	LBB16_10
LBB16_18:
	movl	-48(%rbp), %eax
	movl	%eax, -4(%rbp)
LBB16_19:
	movl	-4(%rbp), %eax
	addq	$64, %rsp
	popq	%rbp
	retq
	.cfi_endproc
                                        ## -- End function
	.p2align	4, 0x90                         ## -- Begin function dswap_2
_dswap_2:                               ## @dswap_2
	.cfi_startproc
## %bb.0:
	pushq	%rbp
	.cfi_def_cfa_offset 16
	.cfi_offset %rbp, -16
	movq	%rsp, %rbp
	.cfi_def_cfa_register %rbp
	subq	$256, %rsp                      ## imm = 0x100
	xorl	%eax, %eax
	movl	%edi, -4(%rbp)
	movq	%rsi, -16(%rbp)
	movl	%edx, -20(%rbp)
	movq	%rcx, -32(%rbp)
	movl	%r8d, -36(%rbp)
	cmpl	-4(%rbp), %eax
	setl	%r9b
	xorb	$-1, %r9b
	andb	$1, %r9b
	movzbl	%r9b, %eax
	movslq	%eax, %rcx
	cmpq	$0, %rcx
	je	LBB17_2
## %bb.1:
	leaq	L___func__.dswap_2(%rip), %rdi
	leaq	L_.str.1(%rip), %rsi
	leaq	L_.str.7(%rip), %rcx
	movl	$699, %edx                      ## imm = 0x2BB
	callq	___assert_rtn
LBB17_2:
	jmp	LBB17_3
LBB17_3:
	xorl	%eax, %eax
	cmpl	-20(%rbp), %eax
	setl	%cl
	xorb	$-1, %cl
	andb	$1, %cl
	movzbl	%cl, %eax
	movslq	%eax, %rdx
	cmpq	$0, %rdx
	je	LBB17_5
## %bb.4:
	leaq	L___func__.dswap_2(%rip), %rdi
	leaq	L_.str.1(%rip), %rsi
	leaq	L_.str.8(%rip), %rcx
	movl	$700, %edx                      ## imm = 0x2BC
	callq	___assert_rtn
LBB17_5:
	jmp	LBB17_6
LBB17_6:
	xorl	%eax, %eax
	cmpl	-36(%rbp), %eax
	setl	%cl
	xorb	$-1, %cl
	andb	$1, %cl
	movzbl	%cl, %eax
	movslq	%eax, %rdx
	cmpq	$0, %rdx
	je	LBB17_8
## %bb.7:
	leaq	L___func__.dswap_2(%rip), %rdi
	leaq	L_.str.1(%rip), %rsi
	leaq	L_.str.9(%rip), %rcx
	movl	$701, %edx                      ## imm = 0x2BD
	callq	___assert_rtn
LBB17_8:
	jmp	LBB17_9
LBB17_9:
	cmpl	$1, -20(%rbp)
	jne	LBB17_20
## %bb.10:
	cmpl	$1, -36(%rbp)
	jne	LBB17_20
## %bb.11:
	movl	$0, -244(%rbp)
LBB17_12:                               ## =>This Inner Loop Header: Depth=1
	movl	-244(%rbp), %eax
	movl	-4(%rbp), %ecx
	subl	$7, %ecx
	cmpl	%ecx, %eax
	jge	LBB17_15
## %bb.13:                              ##   in Loop: Header=BB17_12 Depth=1
	movq	-16(%rbp), %rax
	movl	-244(%rbp), %ecx
	addl	$0, %ecx
	movslq	%ecx, %rdx
	vmovsd	(%rax,%rdx,8), %xmm0            ## xmm0 = mem[0],zero
	vmovsd	%xmm0, -120(%rbp)
	movq	-16(%rbp), %rax
	movl	-244(%rbp), %ecx
	addl	$1, %ecx
	movslq	%ecx, %rdx
	vmovsd	(%rax,%rdx,8), %xmm0            ## xmm0 = mem[0],zero
	vmovsd	%xmm0, -128(%rbp)
	movq	-16(%rbp), %rax
	movl	-244(%rbp), %ecx
	addl	$2, %ecx
	movslq	%ecx, %rdx
	vmovsd	(%rax,%rdx,8), %xmm0            ## xmm0 = mem[0],zero
	vmovsd	%xmm0, -136(%rbp)
	movq	-16(%rbp), %rax
	movl	-244(%rbp), %ecx
	addl	$3, %ecx
	movslq	%ecx, %rdx
	vmovsd	(%rax,%rdx,8), %xmm0            ## xmm0 = mem[0],zero
	vmovsd	%xmm0, -144(%rbp)
	movq	-16(%rbp), %rax
	movl	-244(%rbp), %ecx
	addl	$4, %ecx
	movslq	%ecx, %rdx
	vmovsd	(%rax,%rdx,8), %xmm0            ## xmm0 = mem[0],zero
	vmovsd	%xmm0, -152(%rbp)
	movq	-16(%rbp), %rax
	movl	-244(%rbp), %ecx
	addl	$5, %ecx
	movslq	%ecx, %rdx
	vmovsd	(%rax,%rdx,8), %xmm0            ## xmm0 = mem[0],zero
	vmovsd	%xmm0, -160(%rbp)
	movq	-16(%rbp), %rax
	movl	-244(%rbp), %ecx
	addl	$6, %ecx
	movslq	%ecx, %rdx
	vmovsd	(%rax,%rdx,8), %xmm0            ## xmm0 = mem[0],zero
	vmovsd	%xmm0, -168(%rbp)
	movq	-16(%rbp), %rax
	movl	-244(%rbp), %ecx
	addl	$7, %ecx
	movslq	%ecx, %rdx
	vmovsd	(%rax,%rdx,8), %xmm0            ## xmm0 = mem[0],zero
	vmovsd	%xmm0, -176(%rbp)
	movq	-32(%rbp), %rax
	movl	-244(%rbp), %ecx
	addl	$0, %ecx
	movslq	%ecx, %rdx
	vmovsd	(%rax,%rdx,8), %xmm0            ## xmm0 = mem[0],zero
	vmovsd	%xmm0, -184(%rbp)
	movq	-32(%rbp), %rax
	movl	-244(%rbp), %ecx
	addl	$1, %ecx
	movslq	%ecx, %rdx
	vmovsd	(%rax,%rdx,8), %xmm0            ## xmm0 = mem[0],zero
	vmovsd	%xmm0, -192(%rbp)
	movq	-32(%rbp), %rax
	movl	-244(%rbp), %ecx
	addl	$2, %ecx
	movslq	%ecx, %rdx
	vmovsd	(%rax,%rdx,8), %xmm0            ## xmm0 = mem[0],zero
	vmovsd	%xmm0, -200(%rbp)
	movq	-32(%rbp), %rax
	movl	-244(%rbp), %ecx
	addl	$3, %ecx
	movslq	%ecx, %rdx
	vmovsd	(%rax,%rdx,8), %xmm0            ## xmm0 = mem[0],zero
	vmovsd	%xmm0, -208(%rbp)
	movq	-32(%rbp), %rax
	movl	-244(%rbp), %ecx
	addl	$4, %ecx
	movslq	%ecx, %rdx
	vmovsd	(%rax,%rdx,8), %xmm0            ## xmm0 = mem[0],zero
	vmovsd	%xmm0, -216(%rbp)
	movq	-32(%rbp), %rax
	movl	-244(%rbp), %ecx
	addl	$5, %ecx
	movslq	%ecx, %rdx
	vmovsd	(%rax,%rdx,8), %xmm0            ## xmm0 = mem[0],zero
	vmovsd	%xmm0, -224(%rbp)
	movq	-32(%rbp), %rax
	movl	-244(%rbp), %ecx
	addl	$6, %ecx
	movslq	%ecx, %rdx
	vmovsd	(%rax,%rdx,8), %xmm0            ## xmm0 = mem[0],zero
	vmovsd	%xmm0, -232(%rbp)
	movq	-32(%rbp), %rax
	movl	-244(%rbp), %ecx
	addl	$7, %ecx
	movslq	%ecx, %rdx
	vmovsd	(%rax,%rdx,8), %xmm0            ## xmm0 = mem[0],zero
	vmovsd	%xmm0, -240(%rbp)
	vmovsd	-184(%rbp), %xmm0               ## xmm0 = mem[0],zero
	movq	-16(%rbp), %rax
	movl	-244(%rbp), %ecx
	addl	$0, %ecx
	movslq	%ecx, %rdx
	vmovsd	%xmm0, (%rax,%rdx,8)
	vmovsd	-192(%rbp), %xmm0               ## xmm0 = mem[0],zero
	movq	-16(%rbp), %rax
	movl	-244(%rbp), %ecx
	addl	$1, %ecx
	movslq	%ecx, %rdx
	vmovsd	%xmm0, (%rax,%rdx,8)
	vmovsd	-200(%rbp), %xmm0               ## xmm0 = mem[0],zero
	movq	-16(%rbp), %rax
	movl	-244(%rbp), %ecx
	addl	$2, %ecx
	movslq	%ecx, %rdx
	vmovsd	%xmm0, (%rax,%rdx,8)
	vmovsd	-208(%rbp), %xmm0               ## xmm0 = mem[0],zero
	movq	-16(%rbp), %rax
	movl	-244(%rbp), %ecx
	addl	$3, %ecx
	movslq	%ecx, %rdx
	vmovsd	%xmm0, (%rax,%rdx,8)
	vmovsd	-216(%rbp), %xmm0               ## xmm0 = mem[0],zero
	movq	-16(%rbp), %rax
	movl	-244(%rbp), %ecx
	addl	$4, %ecx
	movslq	%ecx, %rdx
	vmovsd	%xmm0, (%rax,%rdx,8)
	vmovsd	-224(%rbp), %xmm0               ## xmm0 = mem[0],zero
	movq	-16(%rbp), %rax
	movl	-244(%rbp), %ecx
	addl	$5, %ecx
	movslq	%ecx, %rdx
	vmovsd	%xmm0, (%rax,%rdx,8)
	vmovsd	-232(%rbp), %xmm0               ## xmm0 = mem[0],zero
	movq	-16(%rbp), %rax
	movl	-244(%rbp), %ecx
	addl	$6, %ecx
	movslq	%ecx, %rdx
	vmovsd	%xmm0, (%rax,%rdx,8)
	vmovsd	-240(%rbp), %xmm0               ## xmm0 = mem[0],zero
	movq	-16(%rbp), %rax
	movl	-244(%rbp), %ecx
	addl	$7, %ecx
	movslq	%ecx, %rdx
	vmovsd	%xmm0, (%rax,%rdx,8)
	vmovsd	-120(%rbp), %xmm0               ## xmm0 = mem[0],zero
	movq	-32(%rbp), %rax
	movl	-244(%rbp), %ecx
	addl	$0, %ecx
	movslq	%ecx, %rdx
	vmovsd	%xmm0, (%rax,%rdx,8)
	vmovsd	-128(%rbp), %xmm0               ## xmm0 = mem[0],zero
	movq	-32(%rbp), %rax
	movl	-244(%rbp), %ecx
	addl	$1, %ecx
	movslq	%ecx, %rdx
	vmovsd	%xmm0, (%rax,%rdx,8)
	vmovsd	-136(%rbp), %xmm0               ## xmm0 = mem[0],zero
	movq	-32(%rbp), %rax
	movl	-244(%rbp), %ecx
	addl	$2, %ecx
	movslq	%ecx, %rdx
	vmovsd	%xmm0, (%rax,%rdx,8)
	vmovsd	-144(%rbp), %xmm0               ## xmm0 = mem[0],zero
	movq	-32(%rbp), %rax
	movl	-244(%rbp), %ecx
	addl	$3, %ecx
	movslq	%ecx, %rdx
	vmovsd	%xmm0, (%rax,%rdx,8)
	vmovsd	-152(%rbp), %xmm0               ## xmm0 = mem[0],zero
	movq	-32(%rbp), %rax
	movl	-244(%rbp), %ecx
	addl	$4, %ecx
	movslq	%ecx, %rdx
	vmovsd	%xmm0, (%rax,%rdx,8)
	vmovsd	-160(%rbp), %xmm0               ## xmm0 = mem[0],zero
	movq	-32(%rbp), %rax
	movl	-244(%rbp), %ecx
	addl	$5, %ecx
	movslq	%ecx, %rdx
	vmovsd	%xmm0, (%rax,%rdx,8)
	vmovsd	-168(%rbp), %xmm0               ## xmm0 = mem[0],zero
	movq	-32(%rbp), %rax
	movl	-244(%rbp), %ecx
	addl	$6, %ecx
	movslq	%ecx, %rdx
	vmovsd	%xmm0, (%rax,%rdx,8)
	vmovsd	-176(%rbp), %xmm0               ## xmm0 = mem[0],zero
	movq	-32(%rbp), %rax
	movl	-244(%rbp), %ecx
	addl	$7, %ecx
	movslq	%ecx, %rdx
	vmovsd	%xmm0, (%rax,%rdx,8)
## %bb.14:                              ##   in Loop: Header=BB17_12 Depth=1
	movl	-244(%rbp), %eax
	addl	$8, %eax
	movl	%eax, -244(%rbp)
	jmp	LBB17_12
LBB17_15:
	jmp	LBB17_16
LBB17_16:                               ## =>This Inner Loop Header: Depth=1
	movl	-244(%rbp), %eax
	cmpl	-4(%rbp), %eax
	jge	LBB17_19
## %bb.17:                              ##   in Loop: Header=BB17_16 Depth=1
	movq	-16(%rbp), %rax
	movl	-244(%rbp), %ecx
	addl	$0, %ecx
	movslq	%ecx, %rdx
	vmovsd	(%rax,%rdx,8), %xmm0            ## xmm0 = mem[0],zero
	vmovsd	%xmm0, -56(%rbp)
	movq	-32(%rbp), %rax
	movl	-244(%rbp), %ecx
	addl	$0, %ecx
	movslq	%ecx, %rdx
	vmovsd	(%rax,%rdx,8), %xmm0            ## xmm0 = mem[0],zero
	movq	-16(%rbp), %rax
	movl	-244(%rbp), %ecx
	addl	$0, %ecx
	movslq	%ecx, %rdx
	vmovsd	%xmm0, (%rax,%rdx,8)
	vmovsd	-56(%rbp), %xmm0                ## xmm0 = mem[0],zero
	movq	-32(%rbp), %rax
	movl	-244(%rbp), %ecx
	addl	$0, %ecx
	movslq	%ecx, %rdx
	vmovsd	%xmm0, (%rax,%rdx,8)
## %bb.18:                              ##   in Loop: Header=BB17_16 Depth=1
	movl	-244(%rbp), %eax
	addl	$1, %eax
	movl	%eax, -244(%rbp)
	jmp	LBB17_16
LBB17_19:
	jmp	LBB17_25
LBB17_20:
	movl	$0, -244(%rbp)
	movl	$0, -248(%rbp)
	movl	$0, -252(%rbp)
LBB17_21:                               ## =>This Inner Loop Header: Depth=1
	movl	-244(%rbp), %eax
	cmpl	-4(%rbp), %eax
	jge	LBB17_24
## %bb.22:                              ##   in Loop: Header=BB17_21 Depth=1
	movq	-16(%rbp), %rax
	movslq	-248(%rbp), %rcx
	vmovsd	(%rax,%rcx,8), %xmm0            ## xmm0 = mem[0],zero
	vmovsd	%xmm0, -48(%rbp)
	movq	-32(%rbp), %rax
	movslq	-252(%rbp), %rcx
	vmovsd	(%rax,%rcx,8), %xmm0            ## xmm0 = mem[0],zero
	movq	-16(%rbp), %rax
	movslq	-248(%rbp), %rcx
	vmovsd	%xmm0, (%rax,%rcx,8)
	vmovsd	-48(%rbp), %xmm0                ## xmm0 = mem[0],zero
	movq	-32(%rbp), %rax
	movslq	-252(%rbp), %rcx
	vmovsd	%xmm0, (%rax,%rcx,8)
## %bb.23:                              ##   in Loop: Header=BB17_21 Depth=1
	movl	-244(%rbp), %eax
	addl	$1, %eax
	movl	%eax, -244(%rbp)
	movl	-20(%rbp), %eax
	addl	-248(%rbp), %eax
	movl	%eax, -248(%rbp)
	movl	-36(%rbp), %eax
	addl	-252(%rbp), %eax
	movl	%eax, -252(%rbp)
	jmp	LBB17_21
LBB17_24:
	jmp	LBB17_25
LBB17_25:
	addq	$256, %rsp                      ## imm = 0x100
	popq	%rbp
	retq
	.cfi_endproc
                                        ## -- End function
	.section	__TEXT,__literal8,8byte_literals
	.p2align	3                               ## -- Begin function lu_solve_2
LCPI18_0:
	.quad	0xbff0000000000000              ## double -1
LCPI18_1:
	.quad	0x3ff0000000000000              ## double 1
	.section	__TEXT,__text,regular,pure_instructions
	.globl	_lu_solve_2
	.p2align	4, 0x90
_lu_solve_2:                            ## @lu_solve_2
	.cfi_startproc
## %bb.0:
	pushq	%rbp
	.cfi_def_cfa_offset 16
	.cfi_offset %rbp, -16
	movq	%rsp, %rbp
	.cfi_def_cfa_register %rbp
	pushq	%r14
	pushq	%rbx
	subq	$160, %rsp
	.cfi_offset %rbx, -32
	.cfi_offset %r14, -24
	movl	%edi, -32(%rbp)
	movq	%rsi, -40(%rbp)
	movq	%rdx, -48(%rbp)
	movq	_scratch_ipiv(%rip), %rax
	movq	%rax, -72(%rbp)
	movl	-32(%rbp), %ecx
	movl	-32(%rbp), %edi
	movl	%ecx, -20(%rbp)
	movl	%edi, -24(%rbp)
	movl	$64, -76(%rbp)
	movl	-32(%rbp), %ecx
	movl	%ecx, -80(%rbp)
	movl	-32(%rbp), %ecx
	movl	%ecx, -84(%rbp)
	movl	-32(%rbp), %ecx
	movl	%ecx, -88(%rbp)
	cmpl	$1, -76(%rbp)
	jle	LBB18_2
## %bb.1:
	movl	-76(%rbp), %eax
	cmpl	-88(%rbp), %eax
	jl	LBB18_5
LBB18_2:
	movl	-80(%rbp), %edi
	movl	-32(%rbp), %esi
	movq	-40(%rbp), %rdx
	movl	-84(%rbp), %ecx
	movq	-72(%rbp), %r8
	callq	_dgetf2_2
	movl	%eax, -52(%rbp)
	cmpl	$0, -52(%rbp)
	je	LBB18_4
## %bb.3:
	movl	-52(%rbp), %eax
	movl	%eax, -28(%rbp)
	jmp	LBB18_32
LBB18_4:
	jmp	LBB18_31
LBB18_5:
	movl	$0, -56(%rbp)
LBB18_6:                                ## =>This Loop Header: Depth=1
                                        ##     Child Loop BB18_13 Depth 2
                                        ##     Child Loop BB18_20 Depth 2
	movl	-56(%rbp), %eax
	cmpl	-88(%rbp), %eax
	jge	LBB18_30
## %bb.7:                               ##   in Loop: Header=BB18_6 Depth=1
	movl	-88(%rbp), %eax
	subl	-56(%rbp), %eax
	cmpl	-76(%rbp), %eax
	jge	LBB18_9
## %bb.8:                               ##   in Loop: Header=BB18_6 Depth=1
	movl	-88(%rbp), %eax
	subl	-56(%rbp), %eax
	movl	%eax, -92(%rbp)                 ## 4-byte Spill
	jmp	LBB18_10
LBB18_9:                                ##   in Loop: Header=BB18_6 Depth=1
	movl	-76(%rbp), %eax
	movl	%eax, -92(%rbp)                 ## 4-byte Spill
LBB18_10:                               ##   in Loop: Header=BB18_6 Depth=1
	movl	-92(%rbp), %eax                 ## 4-byte Reload
	movl	%eax, -60(%rbp)
	movl	-80(%rbp), %eax
	subl	-56(%rbp), %eax
	movl	-60(%rbp), %esi
	movq	-40(%rbp), %rcx
	movl	-32(%rbp), %edx
	imull	-56(%rbp), %edx
	addl	-56(%rbp), %edx
	movslq	%edx, %rdi
	shlq	$3, %rdi
	addq	%rdi, %rcx
	movl	-84(%rbp), %edx
	movq	-72(%rbp), %rdi
	movslq	-56(%rbp), %r8
	shlq	$2, %r8
	addq	%r8, %rdi
	movq	%rdi, -104(%rbp)                ## 8-byte Spill
	movl	%eax, %edi
	movl	%edx, -108(%rbp)                ## 4-byte Spill
	movq	%rcx, %rdx
	movl	-108(%rbp), %ecx                ## 4-byte Reload
	movq	-104(%rbp), %r8                 ## 8-byte Reload
	callq	_dgetf2_2
	movl	%eax, -52(%rbp)
	cmpl	$0, -52(%rbp)
	je	LBB18_12
## %bb.11:
	movl	-52(%rbp), %eax
	movl	%eax, -28(%rbp)
	jmp	LBB18_32
LBB18_12:                               ##   in Loop: Header=BB18_6 Depth=1
	movl	-56(%rbp), %eax
	movl	%eax, -64(%rbp)
LBB18_13:                               ##   Parent Loop BB18_6 Depth=1
                                        ## =>  This Inner Loop Header: Depth=2
	movl	-64(%rbp), %eax
	movl	-80(%rbp), %ecx
	movl	-56(%rbp), %edx
	addl	-60(%rbp), %edx
	cmpl	%edx, %ecx
	movl	%eax, -112(%rbp)                ## 4-byte Spill
	jge	LBB18_15
## %bb.14:                              ##   in Loop: Header=BB18_13 Depth=2
	movl	-80(%rbp), %eax
	movl	%eax, -116(%rbp)                ## 4-byte Spill
	jmp	LBB18_16
LBB18_15:                               ##   in Loop: Header=BB18_13 Depth=2
	movl	-56(%rbp), %eax
	addl	-60(%rbp), %eax
	movl	%eax, -116(%rbp)                ## 4-byte Spill
LBB18_16:                               ##   in Loop: Header=BB18_13 Depth=2
	movl	-116(%rbp), %eax                ## 4-byte Reload
	subl	$7, %eax
	movl	-112(%rbp), %ecx                ## 4-byte Reload
	cmpl	%eax, %ecx
	jge	LBB18_19
## %bb.17:                              ##   in Loop: Header=BB18_13 Depth=2
	movq	-72(%rbp), %rax
	movl	-64(%rbp), %ecx
	addl	$0, %ecx
	movslq	%ecx, %rdx
	movl	(%rax,%rdx,4), %ecx
	addl	-56(%rbp), %ecx
	movq	-72(%rbp), %rax
	movl	-64(%rbp), %esi
	addl	$0, %esi
	movslq	%esi, %rdx
	movl	%ecx, (%rax,%rdx,4)
	movq	-72(%rbp), %rax
	movl	-64(%rbp), %ecx
	addl	$1, %ecx
	movslq	%ecx, %rdx
	movl	(%rax,%rdx,4), %ecx
	addl	-56(%rbp), %ecx
	movq	-72(%rbp), %rax
	movl	-64(%rbp), %esi
	addl	$1, %esi
	movslq	%esi, %rdx
	movl	%ecx, (%rax,%rdx,4)
	movq	-72(%rbp), %rax
	movl	-64(%rbp), %ecx
	addl	$2, %ecx
	movslq	%ecx, %rdx
	movl	(%rax,%rdx,4), %ecx
	addl	-56(%rbp), %ecx
	movq	-72(%rbp), %rax
	movl	-64(%rbp), %esi
	addl	$2, %esi
	movslq	%esi, %rdx
	movl	%ecx, (%rax,%rdx,4)
	movq	-72(%rbp), %rax
	movl	-64(%rbp), %ecx
	addl	$3, %ecx
	movslq	%ecx, %rdx
	movl	(%rax,%rdx,4), %ecx
	addl	-56(%rbp), %ecx
	movq	-72(%rbp), %rax
	movl	-64(%rbp), %esi
	addl	$3, %esi
	movslq	%esi, %rdx
	movl	%ecx, (%rax,%rdx,4)
	movq	-72(%rbp), %rax
	movl	-64(%rbp), %ecx
	addl	$4, %ecx
	movslq	%ecx, %rdx
	movl	(%rax,%rdx,4), %ecx
	addl	-56(%rbp), %ecx
	movq	-72(%rbp), %rax
	movl	-64(%rbp), %esi
	addl	$4, %esi
	movslq	%esi, %rdx
	movl	%ecx, (%rax,%rdx,4)
	movq	-72(%rbp), %rax
	movl	-64(%rbp), %ecx
	addl	$5, %ecx
	movslq	%ecx, %rdx
	movl	(%rax,%rdx,4), %ecx
	addl	-56(%rbp), %ecx
	movq	-72(%rbp), %rax
	movl	-64(%rbp), %esi
	addl	$5, %esi
	movslq	%esi, %rdx
	movl	%ecx, (%rax,%rdx,4)
	movq	-72(%rbp), %rax
	movl	-64(%rbp), %ecx
	addl	$6, %ecx
	movslq	%ecx, %rdx
	movl	(%rax,%rdx,4), %ecx
	addl	-56(%rbp), %ecx
	movq	-72(%rbp), %rax
	movl	-64(%rbp), %esi
	addl	$6, %esi
	movslq	%esi, %rdx
	movl	%ecx, (%rax,%rdx,4)
	movq	-72(%rbp), %rax
	movl	-64(%rbp), %ecx
	addl	$7, %ecx
	movslq	%ecx, %rdx
	movl	(%rax,%rdx,4), %ecx
	addl	-56(%rbp), %ecx
	movq	-72(%rbp), %rax
	movl	-64(%rbp), %esi
	addl	$7, %esi
	movslq	%esi, %rdx
	movl	%ecx, (%rax,%rdx,4)
## %bb.18:                              ##   in Loop: Header=BB18_13 Depth=2
	movl	-64(%rbp), %eax
	addl	$8, %eax
	movl	%eax, -64(%rbp)
	jmp	LBB18_13
LBB18_19:                               ##   in Loop: Header=BB18_6 Depth=1
	jmp	LBB18_20
LBB18_20:                               ##   Parent Loop BB18_6 Depth=1
                                        ## =>  This Inner Loop Header: Depth=2
	movl	-64(%rbp), %eax
	movl	-80(%rbp), %ecx
	movl	-56(%rbp), %edx
	addl	-60(%rbp), %edx
	cmpl	%edx, %ecx
	movl	%eax, -120(%rbp)                ## 4-byte Spill
	jge	LBB18_22
## %bb.21:                              ##   in Loop: Header=BB18_20 Depth=2
	movl	-80(%rbp), %eax
	movl	%eax, -124(%rbp)                ## 4-byte Spill
	jmp	LBB18_23
LBB18_22:                               ##   in Loop: Header=BB18_20 Depth=2
	movl	-56(%rbp), %eax
	addl	-60(%rbp), %eax
	movl	%eax, -124(%rbp)                ## 4-byte Spill
LBB18_23:                               ##   in Loop: Header=BB18_20 Depth=2
	movl	-124(%rbp), %eax                ## 4-byte Reload
	movl	-120(%rbp), %ecx                ## 4-byte Reload
	cmpl	%eax, %ecx
	jge	LBB18_26
## %bb.24:                              ##   in Loop: Header=BB18_20 Depth=2
	movq	-72(%rbp), %rax
	movl	-64(%rbp), %ecx
	addl	$0, %ecx
	movslq	%ecx, %rdx
	movl	(%rax,%rdx,4), %ecx
	addl	-56(%rbp), %ecx
	movq	-72(%rbp), %rax
	movl	-64(%rbp), %esi
	addl	$0, %esi
	movslq	%esi, %rdx
	movl	%ecx, (%rax,%rdx,4)
## %bb.25:                              ##   in Loop: Header=BB18_20 Depth=2
	movl	-64(%rbp), %eax
	addl	$1, %eax
	movl	%eax, -64(%rbp)
	jmp	LBB18_20
LBB18_26:                               ##   in Loop: Header=BB18_6 Depth=1
	movl	-56(%rbp), %edi
	movq	-40(%rbp), %rsi
	movl	-84(%rbp), %edx
	movl	-56(%rbp), %ecx
	movl	-56(%rbp), %eax
	addl	-60(%rbp), %eax
	movq	-72(%rbp), %r9
	movl	%eax, %r8d
	movl	$1, (%rsp)
	callq	_dlaswp_2
	movl	-56(%rbp), %eax
	addl	-60(%rbp), %eax
	cmpl	-32(%rbp), %eax
	jge	LBB18_28
## %bb.27:                              ##   in Loop: Header=BB18_6 Depth=1
	movl	-32(%rbp), %eax
	subl	-56(%rbp), %eax
	subl	-60(%rbp), %eax
	movq	-40(%rbp), %rcx
	imull	$0, -32(%rbp), %edx
	movl	-56(%rbp), %esi
	addl	-60(%rbp), %esi
	addl	%esi, %edx
	movslq	%edx, %rdi
	shlq	$3, %rdi
	addq	%rdi, %rcx
	movl	-84(%rbp), %edx
	movl	-56(%rbp), %esi
	movl	-56(%rbp), %r8d
	addl	-60(%rbp), %r8d
	movq	-72(%rbp), %r9
	movl	%eax, %edi
	movl	%esi, -128(%rbp)                ## 4-byte Spill
	movq	%rcx, %rsi
	movl	-128(%rbp), %ecx                ## 4-byte Reload
	movl	$1, (%rsp)
	callq	_dlaswp_2
	movl	-60(%rbp), %edi
	movl	-32(%rbp), %eax
	subl	-56(%rbp), %eax
	subl	-60(%rbp), %eax
	movq	-40(%rbp), %rsi
	movl	-32(%rbp), %ecx
	imull	-56(%rbp), %ecx
	addl	-56(%rbp), %ecx
	movslq	%ecx, %r9
	shlq	$3, %r9
	addq	%r9, %rsi
	movl	-84(%rbp), %ecx
	movq	-40(%rbp), %r9
	movl	-32(%rbp), %edx
	imull	-56(%rbp), %edx
	movl	-56(%rbp), %r8d
	addl	-60(%rbp), %r8d
	addl	%r8d, %edx
	movslq	%edx, %r10
	shlq	$3, %r10
	addq	%r10, %r9
	movl	-84(%rbp), %edx
	movq	%rsi, -136(%rbp)                ## 8-byte Spill
	movl	%eax, %esi
	movq	-136(%rbp), %r10                ## 8-byte Reload
	movl	%edx, -140(%rbp)                ## 4-byte Spill
	movq	%r10, %rdx
	movq	%r9, %r8
	movl	-140(%rbp), %r9d                ## 4-byte Reload
	callq	_dtrsm_L_2
	vmovsd	LCPI18_0(%rip), %xmm0           ## xmm0 = mem[0],zero
	vmovsd	LCPI18_1(%rip), %xmm1           ## xmm1 = mem[0],zero
	movl	-80(%rbp), %eax
	subl	-56(%rbp), %eax
	subl	-60(%rbp), %eax
	movl	-32(%rbp), %ecx
	subl	-56(%rbp), %ecx
	subl	-60(%rbp), %ecx
	movl	-60(%rbp), %edx
	movq	-40(%rbp), %r8
	movl	-32(%rbp), %esi
	movl	-56(%rbp), %edi
	addl	-60(%rbp), %edi
	imull	%edi, %esi
	addl	-56(%rbp), %esi
	movslq	%esi, %r10
	shlq	$3, %r10
	addq	%r10, %r8
	movl	-84(%rbp), %esi
	movq	-40(%rbp), %r10
	movl	-32(%rbp), %edi
	imull	-56(%rbp), %edi
	movl	-56(%rbp), %r9d
	addl	-60(%rbp), %r9d
	addl	%r9d, %edi
	movslq	%edi, %r11
	shlq	$3, %r11
	addq	%r11, %r10
	movl	-84(%rbp), %edi
	movq	-40(%rbp), %r11
	movl	-32(%rbp), %r9d
	movl	-56(%rbp), %ebx
	addl	-60(%rbp), %ebx
	imull	%ebx, %r9d
	movl	-56(%rbp), %ebx
	addl	-60(%rbp), %ebx
	addl	%ebx, %r9d
	movslq	%r9d, %r14
	shlq	$3, %r14
	addq	%r14, %r11
	movl	-84(%rbp), %r9d
	movl	%edi, -144(%rbp)                ## 4-byte Spill
	movl	%eax, %edi
	movl	%esi, -148(%rbp)                ## 4-byte Spill
	movl	%ecx, %esi
	movq	%r8, %rcx
	movl	-148(%rbp), %r8d                ## 4-byte Reload
	movl	%r9d, -152(%rbp)                ## 4-byte Spill
	movq	%r10, %r9
	movl	-144(%rbp), %eax                ## 4-byte Reload
	movl	%eax, (%rsp)
	movq	%r11, 8(%rsp)
	movl	-152(%rbp), %eax                ## 4-byte Reload
	movl	%eax, 16(%rsp)
	callq	_dgemm_2
LBB18_28:                               ##   in Loop: Header=BB18_6 Depth=1
	jmp	LBB18_29
LBB18_29:                               ##   in Loop: Header=BB18_6 Depth=1
	movl	-76(%rbp), %eax
	addl	-56(%rbp), %eax
	movl	%eax, -56(%rbp)
	jmp	LBB18_6
LBB18_30:
	jmp	LBB18_31
LBB18_31:
	movl	-32(%rbp), %edi
	movq	-40(%rbp), %rsi
	movq	-72(%rbp), %rdx
	movq	-48(%rbp), %rcx
	callq	_dgetrs_2
	movl	%eax, -52(%rbp)
	movl	-52(%rbp), %eax
	movl	%eax, -28(%rbp)
LBB18_32:
	movl	-28(%rbp), %eax
	addq	$160, %rsp
	popq	%rbx
	popq	%r14
	popq	%rbp
	retq
	.cfi_endproc
                                        ## -- End function
	.p2align	4, 0x90                         ## -- Begin function dlaswp_2
_dlaswp_2:                              ## @dlaswp_2
	.cfi_startproc
## %bb.0:
	pushq	%rbp
	.cfi_def_cfa_offset 16
	.cfi_offset %rbp, -16
	movq	%rsp, %rbp
	.cfi_def_cfa_register %rbp
	subq	$208, %rsp
	movl	16(%rbp), %eax
	xorl	%r10d, %r10d
	movl	%edi, -4(%rbp)
	movq	%rsi, -16(%rbp)
	movl	%edx, -20(%rbp)
	movl	%ecx, -24(%rbp)
	movl	%r8d, -28(%rbp)
	movq	%r9, -40(%rbp)
	cmpl	16(%rbp), %r10d
	setl	%r11b
	xorb	$-1, %r11b
	andb	$1, %r11b
	movzbl	%r11b, %ecx
	movslq	%ecx, %rsi
	cmpq	$0, %rsi
	je	LBB19_2
## %bb.1:
	leaq	L___func__.dlaswp_2(%rip), %rdi
	leaq	L_.str.1(%rip), %rsi
	leaq	L_.str.8(%rip), %rcx
	movl	$799, %edx                      ## imm = 0x31F
	callq	___assert_rtn
LBB19_2:
	jmp	LBB19_3
LBB19_3:
	movl	$1, %eax
	cmpl	16(%rbp), %eax
	sete	%cl
	xorb	$-1, %cl
	andb	$1, %cl
	movzbl	%cl, %eax
	movslq	%eax, %rdx
	cmpq	$0, %rdx
	je	LBB19_5
## %bb.4:
	leaq	L___func__.dlaswp_2(%rip), %rdi
	leaq	L_.str.1(%rip), %rsi
	leaq	L_.str.11(%rip), %rcx
	movl	$800, %edx                      ## imm = 0x320
	callq	___assert_rtn
LBB19_5:
	jmp	LBB19_6
LBB19_6:
	xorl	%eax, %eax
	movl	-4(%rbp), %ecx
	movl	%eax, -204(%rbp)                ## 4-byte Spill
	movl	%ecx, %eax
	cltd
	movl	$32, %ecx
	idivl	%ecx
	shll	$5, %eax
	movl	%eax, -44(%rbp)
	movl	-204(%rbp), %eax                ## 4-byte Reload
	cmpl	-44(%rbp), %eax
	jge	LBB19_22
## %bb.7:
	movl	$0, -52(%rbp)
LBB19_8:                                ## =>This Loop Header: Depth=1
                                        ##     Child Loop BB19_10 Depth 2
                                        ##       Child Loop BB19_13 Depth 3
	movl	-52(%rbp), %eax
	cmpl	-44(%rbp), %eax
	jge	LBB19_21
## %bb.9:                               ##   in Loop: Header=BB19_8 Depth=1
	movl	-24(%rbp), %eax
	movl	%eax, -48(%rbp)
LBB19_10:                               ##   Parent Loop BB19_8 Depth=1
                                        ## =>  This Loop Header: Depth=2
                                        ##       Child Loop BB19_13 Depth 3
	movl	-48(%rbp), %eax
	cmpl	-28(%rbp), %eax
	jge	LBB19_19
## %bb.11:                              ##   in Loop: Header=BB19_10 Depth=2
	movq	-40(%rbp), %rax
	movslq	-48(%rbp), %rcx
	movl	(%rax,%rcx,4), %edx
	movl	%edx, -60(%rbp)
	movl	-60(%rbp), %edx
	cmpl	-48(%rbp), %edx
	je	LBB19_17
## %bb.12:                              ##   in Loop: Header=BB19_10 Depth=2
	movl	-52(%rbp), %eax
	movl	%eax, -56(%rbp)
LBB19_13:                               ##   Parent Loop BB19_8 Depth=1
                                        ##     Parent Loop BB19_10 Depth=2
                                        ## =>    This Inner Loop Header: Depth=3
	movl	-56(%rbp), %eax
	movl	-52(%rbp), %ecx
	addl	$32, %ecx
	subl	$7, %ecx
	cmpl	%ecx, %eax
	jge	LBB19_16
## %bb.14:                              ##   in Loop: Header=BB19_13 Depth=3
	movq	-16(%rbp), %rax
	movl	-20(%rbp), %ecx
	imull	-48(%rbp), %ecx
	movl	-56(%rbp), %edx
	addl	$0, %edx
	addl	%edx, %ecx
	movslq	%ecx, %rsi
	vmovsd	(%rax,%rsi,8), %xmm0            ## xmm0 = mem[0],zero
	vmovsd	%xmm0, -80(%rbp)
	movq	-16(%rbp), %rax
	movl	-20(%rbp), %ecx
	imull	-48(%rbp), %ecx
	movl	-56(%rbp), %edx
	addl	$1, %edx
	addl	%edx, %ecx
	movslq	%ecx, %rsi
	vmovsd	(%rax,%rsi,8), %xmm0            ## xmm0 = mem[0],zero
	vmovsd	%xmm0, -88(%rbp)
	movq	-16(%rbp), %rax
	movl	-20(%rbp), %ecx
	imull	-48(%rbp), %ecx
	movl	-56(%rbp), %edx
	addl	$2, %edx
	addl	%edx, %ecx
	movslq	%ecx, %rsi
	vmovsd	(%rax,%rsi,8), %xmm0            ## xmm0 = mem[0],zero
	vmovsd	%xmm0, -96(%rbp)
	movq	-16(%rbp), %rax
	movl	-20(%rbp), %ecx
	imull	-48(%rbp), %ecx
	movl	-56(%rbp), %edx
	addl	$3, %edx
	addl	%edx, %ecx
	movslq	%ecx, %rsi
	vmovsd	(%rax,%rsi,8), %xmm0            ## xmm0 = mem[0],zero
	vmovsd	%xmm0, -104(%rbp)
	movq	-16(%rbp), %rax
	movl	-20(%rbp), %ecx
	imull	-48(%rbp), %ecx
	movl	-56(%rbp), %edx
	addl	$4, %edx
	addl	%edx, %ecx
	movslq	%ecx, %rsi
	vmovsd	(%rax,%rsi,8), %xmm0            ## xmm0 = mem[0],zero
	vmovsd	%xmm0, -112(%rbp)
	movq	-16(%rbp), %rax
	movl	-20(%rbp), %ecx
	imull	-48(%rbp), %ecx
	movl	-56(%rbp), %edx
	addl	$5, %edx
	addl	%edx, %ecx
	movslq	%ecx, %rsi
	vmovsd	(%rax,%rsi,8), %xmm0            ## xmm0 = mem[0],zero
	vmovsd	%xmm0, -120(%rbp)
	movq	-16(%rbp), %rax
	movl	-20(%rbp), %ecx
	imull	-48(%rbp), %ecx
	movl	-56(%rbp), %edx
	addl	$6, %edx
	addl	%edx, %ecx
	movslq	%ecx, %rsi
	vmovsd	(%rax,%rsi,8), %xmm0            ## xmm0 = mem[0],zero
	vmovsd	%xmm0, -128(%rbp)
	movq	-16(%rbp), %rax
	movl	-20(%rbp), %ecx
	imull	-48(%rbp), %ecx
	movl	-56(%rbp), %edx
	addl	$7, %edx
	addl	%edx, %ecx
	movslq	%ecx, %rsi
	vmovsd	(%rax,%rsi,8), %xmm0            ## xmm0 = mem[0],zero
	vmovsd	%xmm0, -136(%rbp)
	movq	-16(%rbp), %rax
	movl	-20(%rbp), %ecx
	imull	-60(%rbp), %ecx
	movl	-56(%rbp), %edx
	addl	$0, %edx
	addl	%edx, %ecx
	movslq	%ecx, %rsi
	vmovsd	(%rax,%rsi,8), %xmm0            ## xmm0 = mem[0],zero
	vmovsd	%xmm0, -144(%rbp)
	movq	-16(%rbp), %rax
	movl	-20(%rbp), %ecx
	imull	-60(%rbp), %ecx
	movl	-56(%rbp), %edx
	addl	$1, %edx
	addl	%edx, %ecx
	movslq	%ecx, %rsi
	vmovsd	(%rax,%rsi,8), %xmm0            ## xmm0 = mem[0],zero
	vmovsd	%xmm0, -152(%rbp)
	movq	-16(%rbp), %rax
	movl	-20(%rbp), %ecx
	imull	-60(%rbp), %ecx
	movl	-56(%rbp), %edx
	addl	$2, %edx
	addl	%edx, %ecx
	movslq	%ecx, %rsi
	vmovsd	(%rax,%rsi,8), %xmm0            ## xmm0 = mem[0],zero
	vmovsd	%xmm0, -160(%rbp)
	movq	-16(%rbp), %rax
	movl	-20(%rbp), %ecx
	imull	-60(%rbp), %ecx
	movl	-56(%rbp), %edx
	addl	$3, %edx
	addl	%edx, %ecx
	movslq	%ecx, %rsi
	vmovsd	(%rax,%rsi,8), %xmm0            ## xmm0 = mem[0],zero
	vmovsd	%xmm0, -168(%rbp)
	movq	-16(%rbp), %rax
	movl	-20(%rbp), %ecx
	imull	-60(%rbp), %ecx
	movl	-56(%rbp), %edx
	addl	$4, %edx
	addl	%edx, %ecx
	movslq	%ecx, %rsi
	vmovsd	(%rax,%rsi,8), %xmm0            ## xmm0 = mem[0],zero
	vmovsd	%xmm0, -176(%rbp)
	movq	-16(%rbp), %rax
	movl	-20(%rbp), %ecx
	imull	-60(%rbp), %ecx
	movl	-56(%rbp), %edx
	addl	$5, %edx
	addl	%edx, %ecx
	movslq	%ecx, %rsi
	vmovsd	(%rax,%rsi,8), %xmm0            ## xmm0 = mem[0],zero
	vmovsd	%xmm0, -184(%rbp)
	movq	-16(%rbp), %rax
	movl	-20(%rbp), %ecx
	imull	-60(%rbp), %ecx
	movl	-56(%rbp), %edx
	addl	$6, %edx
	addl	%edx, %ecx
	movslq	%ecx, %rsi
	vmovsd	(%rax,%rsi,8), %xmm0            ## xmm0 = mem[0],zero
	vmovsd	%xmm0, -192(%rbp)
	movq	-16(%rbp), %rax
	movl	-20(%rbp), %ecx
	imull	-60(%rbp), %ecx
	movl	-56(%rbp), %edx
	addl	$7, %edx
	addl	%edx, %ecx
	movslq	%ecx, %rsi
	vmovsd	(%rax,%rsi,8), %xmm0            ## xmm0 = mem[0],zero
	vmovsd	%xmm0, -200(%rbp)
	vmovsd	-144(%rbp), %xmm0               ## xmm0 = mem[0],zero
	movq	-16(%rbp), %rax
	movl	-20(%rbp), %ecx
	imull	-48(%rbp), %ecx
	movl	-56(%rbp), %edx
	addl	$0, %edx
	addl	%edx, %ecx
	movslq	%ecx, %rsi
	vmovsd	%xmm0, (%rax,%rsi,8)
	vmovsd	-152(%rbp), %xmm0               ## xmm0 = mem[0],zero
	movq	-16(%rbp), %rax
	movl	-20(%rbp), %ecx
	imull	-48(%rbp), %ecx
	movl	-56(%rbp), %edx
	addl	$1, %edx
	addl	%edx, %ecx
	movslq	%ecx, %rsi
	vmovsd	%xmm0, (%rax,%rsi,8)
	vmovsd	-160(%rbp), %xmm0               ## xmm0 = mem[0],zero
	movq	-16(%rbp), %rax
	movl	-20(%rbp), %ecx
	imull	-48(%rbp), %ecx
	movl	-56(%rbp), %edx
	addl	$2, %edx
	addl	%edx, %ecx
	movslq	%ecx, %rsi
	vmovsd	%xmm0, (%rax,%rsi,8)
	vmovsd	-168(%rbp), %xmm0               ## xmm0 = mem[0],zero
	movq	-16(%rbp), %rax
	movl	-20(%rbp), %ecx
	imull	-48(%rbp), %ecx
	movl	-56(%rbp), %edx
	addl	$3, %edx
	addl	%edx, %ecx
	movslq	%ecx, %rsi
	vmovsd	%xmm0, (%rax,%rsi,8)
	vmovsd	-176(%rbp), %xmm0               ## xmm0 = mem[0],zero
	movq	-16(%rbp), %rax
	movl	-20(%rbp), %ecx
	imull	-48(%rbp), %ecx
	movl	-56(%rbp), %edx
	addl	$4, %edx
	addl	%edx, %ecx
	movslq	%ecx, %rsi
	vmovsd	%xmm0, (%rax,%rsi,8)
	vmovsd	-184(%rbp), %xmm0               ## xmm0 = mem[0],zero
	movq	-16(%rbp), %rax
	movl	-20(%rbp), %ecx
	imull	-48(%rbp), %ecx
	movl	-56(%rbp), %edx
	addl	$5, %edx
	addl	%edx, %ecx
	movslq	%ecx, %rsi
	vmovsd	%xmm0, (%rax,%rsi,8)
	vmovsd	-192(%rbp), %xmm0               ## xmm0 = mem[0],zero
	movq	-16(%rbp), %rax
	movl	-20(%rbp), %ecx
	imull	-48(%rbp), %ecx
	movl	-56(%rbp), %edx
	addl	$6, %edx
	addl	%edx, %ecx
	movslq	%ecx, %rsi
	vmovsd	%xmm0, (%rax,%rsi,8)
	vmovsd	-200(%rbp), %xmm0               ## xmm0 = mem[0],zero
	movq	-16(%rbp), %rax
	movl	-20(%rbp), %ecx
	imull	-48(%rbp), %ecx
	movl	-56(%rbp), %edx
	addl	$7, %edx
	addl	%edx, %ecx
	movslq	%ecx, %rsi
	vmovsd	%xmm0, (%rax,%rsi,8)
	vmovsd	-80(%rbp), %xmm0                ## xmm0 = mem[0],zero
	movq	-16(%rbp), %rax
	movl	-20(%rbp), %ecx
	imull	-60(%rbp), %ecx
	movl	-56(%rbp), %edx
	addl	$0, %edx
	addl	%edx, %ecx
	movslq	%ecx, %rsi
	vmovsd	%xmm0, (%rax,%rsi,8)
	vmovsd	-88(%rbp), %xmm0                ## xmm0 = mem[0],zero
	movq	-16(%rbp), %rax
	movl	-20(%rbp), %ecx
	imull	-60(%rbp), %ecx
	movl	-56(%rbp), %edx
	addl	$1, %edx
	addl	%edx, %ecx
	movslq	%ecx, %rsi
	vmovsd	%xmm0, (%rax,%rsi,8)
	vmovsd	-96(%rbp), %xmm0                ## xmm0 = mem[0],zero
	movq	-16(%rbp), %rax
	movl	-20(%rbp), %ecx
	imull	-60(%rbp), %ecx
	movl	-56(%rbp), %edx
	addl	$2, %edx
	addl	%edx, %ecx
	movslq	%ecx, %rsi
	vmovsd	%xmm0, (%rax,%rsi,8)
	vmovsd	-104(%rbp), %xmm0               ## xmm0 = mem[0],zero
	movq	-16(%rbp), %rax
	movl	-20(%rbp), %ecx
	imull	-60(%rbp), %ecx
	movl	-56(%rbp), %edx
	addl	$3, %edx
	addl	%edx, %ecx
	movslq	%ecx, %rsi
	vmovsd	%xmm0, (%rax,%rsi,8)
	vmovsd	-112(%rbp), %xmm0               ## xmm0 = mem[0],zero
	movq	-16(%rbp), %rax
	movl	-20(%rbp), %ecx
	imull	-60(%rbp), %ecx
	movl	-56(%rbp), %edx
	addl	$4, %edx
	addl	%edx, %ecx
	movslq	%ecx, %rsi
	vmovsd	%xmm0, (%rax,%rsi,8)
	vmovsd	-120(%rbp), %xmm0               ## xmm0 = mem[0],zero
	movq	-16(%rbp), %rax
	movl	-20(%rbp), %ecx
	imull	-60(%rbp), %ecx
	movl	-56(%rbp), %edx
	addl	$5, %edx
	addl	%edx, %ecx
	movslq	%ecx, %rsi
	vmovsd	%xmm0, (%rax,%rsi,8)
	vmovsd	-128(%rbp), %xmm0               ## xmm0 = mem[0],zero
	movq	-16(%rbp), %rax
	movl	-20(%rbp), %ecx
	imull	-60(%rbp), %ecx
	movl	-56(%rbp), %edx
	addl	$6, %edx
	addl	%edx, %ecx
	movslq	%ecx, %rsi
	vmovsd	%xmm0, (%rax,%rsi,8)
	vmovsd	-136(%rbp), %xmm0               ## xmm0 = mem[0],zero
	movq	-16(%rbp), %rax
	movl	-20(%rbp), %ecx
	imull	-60(%rbp), %ecx
	movl	-56(%rbp), %edx
	addl	$7, %edx
	addl	%edx, %ecx
	movslq	%ecx, %rsi
	vmovsd	%xmm0, (%rax,%rsi,8)
## %bb.15:                              ##   in Loop: Header=BB19_13 Depth=3
	movl	-56(%rbp), %eax
	addl	$8, %eax
	movl	%eax, -56(%rbp)
	jmp	LBB19_13
LBB19_16:                               ##   in Loop: Header=BB19_10 Depth=2
	jmp	LBB19_17
LBB19_17:                               ##   in Loop: Header=BB19_10 Depth=2
	jmp	LBB19_18
LBB19_18:                               ##   in Loop: Header=BB19_10 Depth=2
	movl	-48(%rbp), %eax
	addl	$1, %eax
	movl	%eax, -48(%rbp)
	jmp	LBB19_10
LBB19_19:                               ##   in Loop: Header=BB19_8 Depth=1
	jmp	LBB19_20
LBB19_20:                               ##   in Loop: Header=BB19_8 Depth=1
	movl	-52(%rbp), %eax
	addl	$32, %eax
	movl	%eax, -52(%rbp)
	jmp	LBB19_8
LBB19_21:
	jmp	LBB19_22
LBB19_22:
	movl	-44(%rbp), %eax
	cmpl	-4(%rbp), %eax
	je	LBB19_38
## %bb.23:
	movl	-24(%rbp), %eax
	movl	%eax, -48(%rbp)
LBB19_24:                               ## =>This Loop Header: Depth=1
                                        ##     Child Loop BB19_27 Depth 2
                                        ##     Child Loop BB19_31 Depth 2
	movl	-48(%rbp), %eax
	cmpl	-28(%rbp), %eax
	jge	LBB19_37
## %bb.25:                              ##   in Loop: Header=BB19_24 Depth=1
	movq	-40(%rbp), %rax
	movslq	-48(%rbp), %rcx
	movl	(%rax,%rcx,4), %edx
	movl	%edx, -60(%rbp)
	movl	-48(%rbp), %edx
	cmpl	-60(%rbp), %edx
	je	LBB19_35
## %bb.26:                              ##   in Loop: Header=BB19_24 Depth=1
	movl	-44(%rbp), %eax
	movl	%eax, -56(%rbp)
LBB19_27:                               ##   Parent Loop BB19_24 Depth=1
                                        ## =>  This Inner Loop Header: Depth=2
	movl	-56(%rbp), %eax
	movl	-4(%rbp), %ecx
	subl	$7, %ecx
	cmpl	%ecx, %eax
	jge	LBB19_30
## %bb.28:                              ##   in Loop: Header=BB19_27 Depth=2
	movq	-16(%rbp), %rax
	movl	-20(%rbp), %ecx
	imull	-48(%rbp), %ecx
	movl	-56(%rbp), %edx
	addl	$0, %edx
	addl	%edx, %ecx
	movslq	%ecx, %rsi
	vmovsd	(%rax,%rsi,8), %xmm0            ## xmm0 = mem[0],zero
	vmovsd	%xmm0, -80(%rbp)
	movq	-16(%rbp), %rax
	movl	-20(%rbp), %ecx
	imull	-48(%rbp), %ecx
	movl	-56(%rbp), %edx
	addl	$1, %edx
	addl	%edx, %ecx
	movslq	%ecx, %rsi
	vmovsd	(%rax,%rsi,8), %xmm0            ## xmm0 = mem[0],zero
	vmovsd	%xmm0, -88(%rbp)
	movq	-16(%rbp), %rax
	movl	-20(%rbp), %ecx
	imull	-48(%rbp), %ecx
	movl	-56(%rbp), %edx
	addl	$2, %edx
	addl	%edx, %ecx
	movslq	%ecx, %rsi
	vmovsd	(%rax,%rsi,8), %xmm0            ## xmm0 = mem[0],zero
	vmovsd	%xmm0, -96(%rbp)
	movq	-16(%rbp), %rax
	movl	-20(%rbp), %ecx
	imull	-48(%rbp), %ecx
	movl	-56(%rbp), %edx
	addl	$3, %edx
	addl	%edx, %ecx
	movslq	%ecx, %rsi
	vmovsd	(%rax,%rsi,8), %xmm0            ## xmm0 = mem[0],zero
	vmovsd	%xmm0, -104(%rbp)
	movq	-16(%rbp), %rax
	movl	-20(%rbp), %ecx
	imull	-48(%rbp), %ecx
	movl	-56(%rbp), %edx
	addl	$4, %edx
	addl	%edx, %ecx
	movslq	%ecx, %rsi
	vmovsd	(%rax,%rsi,8), %xmm0            ## xmm0 = mem[0],zero
	vmovsd	%xmm0, -112(%rbp)
	movq	-16(%rbp), %rax
	movl	-20(%rbp), %ecx
	imull	-48(%rbp), %ecx
	movl	-56(%rbp), %edx
	addl	$5, %edx
	addl	%edx, %ecx
	movslq	%ecx, %rsi
	vmovsd	(%rax,%rsi,8), %xmm0            ## xmm0 = mem[0],zero
	vmovsd	%xmm0, -120(%rbp)
	movq	-16(%rbp), %rax
	movl	-20(%rbp), %ecx
	imull	-48(%rbp), %ecx
	movl	-56(%rbp), %edx
	addl	$6, %edx
	addl	%edx, %ecx
	movslq	%ecx, %rsi
	vmovsd	(%rax,%rsi,8), %xmm0            ## xmm0 = mem[0],zero
	vmovsd	%xmm0, -128(%rbp)
	movq	-16(%rbp), %rax
	movl	-20(%rbp), %ecx
	imull	-48(%rbp), %ecx
	movl	-56(%rbp), %edx
	addl	$7, %edx
	addl	%edx, %ecx
	movslq	%ecx, %rsi
	vmovsd	(%rax,%rsi,8), %xmm0            ## xmm0 = mem[0],zero
	vmovsd	%xmm0, -136(%rbp)
	movq	-16(%rbp), %rax
	movl	-20(%rbp), %ecx
	imull	-60(%rbp), %ecx
	movl	-56(%rbp), %edx
	addl	$0, %edx
	addl	%edx, %ecx
	movslq	%ecx, %rsi
	vmovsd	(%rax,%rsi,8), %xmm0            ## xmm0 = mem[0],zero
	vmovsd	%xmm0, -144(%rbp)
	movq	-16(%rbp), %rax
	movl	-20(%rbp), %ecx
	imull	-60(%rbp), %ecx
	movl	-56(%rbp), %edx
	addl	$1, %edx
	addl	%edx, %ecx
	movslq	%ecx, %rsi
	vmovsd	(%rax,%rsi,8), %xmm0            ## xmm0 = mem[0],zero
	vmovsd	%xmm0, -152(%rbp)
	movq	-16(%rbp), %rax
	movl	-20(%rbp), %ecx
	imull	-60(%rbp), %ecx
	movl	-56(%rbp), %edx
	addl	$2, %edx
	addl	%edx, %ecx
	movslq	%ecx, %rsi
	vmovsd	(%rax,%rsi,8), %xmm0            ## xmm0 = mem[0],zero
	vmovsd	%xmm0, -160(%rbp)
	movq	-16(%rbp), %rax
	movl	-20(%rbp), %ecx
	imull	-60(%rbp), %ecx
	movl	-56(%rbp), %edx
	addl	$3, %edx
	addl	%edx, %ecx
	movslq	%ecx, %rsi
	vmovsd	(%rax,%rsi,8), %xmm0            ## xmm0 = mem[0],zero
	vmovsd	%xmm0, -168(%rbp)
	movq	-16(%rbp), %rax
	movl	-20(%rbp), %ecx
	imull	-60(%rbp), %ecx
	movl	-56(%rbp), %edx
	addl	$4, %edx
	addl	%edx, %ecx
	movslq	%ecx, %rsi
	vmovsd	(%rax,%rsi,8), %xmm0            ## xmm0 = mem[0],zero
	vmovsd	%xmm0, -176(%rbp)
	movq	-16(%rbp), %rax
	movl	-20(%rbp), %ecx
	imull	-60(%rbp), %ecx
	movl	-56(%rbp), %edx
	addl	$5, %edx
	addl	%edx, %ecx
	movslq	%ecx, %rsi
	vmovsd	(%rax,%rsi,8), %xmm0            ## xmm0 = mem[0],zero
	vmovsd	%xmm0, -184(%rbp)
	movq	-16(%rbp), %rax
	movl	-20(%rbp), %ecx
	imull	-60(%rbp), %ecx
	movl	-56(%rbp), %edx
	addl	$6, %edx
	addl	%edx, %ecx
	movslq	%ecx, %rsi
	vmovsd	(%rax,%rsi,8), %xmm0            ## xmm0 = mem[0],zero
	vmovsd	%xmm0, -192(%rbp)
	movq	-16(%rbp), %rax
	movl	-20(%rbp), %ecx
	imull	-60(%rbp), %ecx
	movl	-56(%rbp), %edx
	addl	$7, %edx
	addl	%edx, %ecx
	movslq	%ecx, %rsi
	vmovsd	(%rax,%rsi,8), %xmm0            ## xmm0 = mem[0],zero
	vmovsd	%xmm0, -200(%rbp)
	vmovsd	-144(%rbp), %xmm0               ## xmm0 = mem[0],zero
	movq	-16(%rbp), %rax
	movl	-20(%rbp), %ecx
	imull	-48(%rbp), %ecx
	movl	-56(%rbp), %edx
	addl	$0, %edx
	addl	%edx, %ecx
	movslq	%ecx, %rsi
	vmovsd	%xmm0, (%rax,%rsi,8)
	vmovsd	-152(%rbp), %xmm0               ## xmm0 = mem[0],zero
	movq	-16(%rbp), %rax
	movl	-20(%rbp), %ecx
	imull	-48(%rbp), %ecx
	movl	-56(%rbp), %edx
	addl	$1, %edx
	addl	%edx, %ecx
	movslq	%ecx, %rsi
	vmovsd	%xmm0, (%rax,%rsi,8)
	vmovsd	-160(%rbp), %xmm0               ## xmm0 = mem[0],zero
	movq	-16(%rbp), %rax
	movl	-20(%rbp), %ecx
	imull	-48(%rbp), %ecx
	movl	-56(%rbp), %edx
	addl	$2, %edx
	addl	%edx, %ecx
	movslq	%ecx, %rsi
	vmovsd	%xmm0, (%rax,%rsi,8)
	vmovsd	-168(%rbp), %xmm0               ## xmm0 = mem[0],zero
	movq	-16(%rbp), %rax
	movl	-20(%rbp), %ecx
	imull	-48(%rbp), %ecx
	movl	-56(%rbp), %edx
	addl	$3, %edx
	addl	%edx, %ecx
	movslq	%ecx, %rsi
	vmovsd	%xmm0, (%rax,%rsi,8)
	vmovsd	-176(%rbp), %xmm0               ## xmm0 = mem[0],zero
	movq	-16(%rbp), %rax
	movl	-20(%rbp), %ecx
	imull	-48(%rbp), %ecx
	movl	-56(%rbp), %edx
	addl	$4, %edx
	addl	%edx, %ecx
	movslq	%ecx, %rsi
	vmovsd	%xmm0, (%rax,%rsi,8)
	vmovsd	-184(%rbp), %xmm0               ## xmm0 = mem[0],zero
	movq	-16(%rbp), %rax
	movl	-20(%rbp), %ecx
	imull	-48(%rbp), %ecx
	movl	-56(%rbp), %edx
	addl	$5, %edx
	addl	%edx, %ecx
	movslq	%ecx, %rsi
	vmovsd	%xmm0, (%rax,%rsi,8)
	vmovsd	-192(%rbp), %xmm0               ## xmm0 = mem[0],zero
	movq	-16(%rbp), %rax
	movl	-20(%rbp), %ecx
	imull	-48(%rbp), %ecx
	movl	-56(%rbp), %edx
	addl	$6, %edx
	addl	%edx, %ecx
	movslq	%ecx, %rsi
	vmovsd	%xmm0, (%rax,%rsi,8)
	vmovsd	-200(%rbp), %xmm0               ## xmm0 = mem[0],zero
	movq	-16(%rbp), %rax
	movl	-20(%rbp), %ecx
	imull	-48(%rbp), %ecx
	movl	-56(%rbp), %edx
	addl	$7, %edx
	addl	%edx, %ecx
	movslq	%ecx, %rsi
	vmovsd	%xmm0, (%rax,%rsi,8)
	vmovsd	-80(%rbp), %xmm0                ## xmm0 = mem[0],zero
	movq	-16(%rbp), %rax
	movl	-20(%rbp), %ecx
	imull	-60(%rbp), %ecx
	movl	-56(%rbp), %edx
	addl	$0, %edx
	addl	%edx, %ecx
	movslq	%ecx, %rsi
	vmovsd	%xmm0, (%rax,%rsi,8)
	vmovsd	-88(%rbp), %xmm0                ## xmm0 = mem[0],zero
	movq	-16(%rbp), %rax
	movl	-20(%rbp), %ecx
	imull	-60(%rbp), %ecx
	movl	-56(%rbp), %edx
	addl	$1, %edx
	addl	%edx, %ecx
	movslq	%ecx, %rsi
	vmovsd	%xmm0, (%rax,%rsi,8)
	vmovsd	-96(%rbp), %xmm0                ## xmm0 = mem[0],zero
	movq	-16(%rbp), %rax
	movl	-20(%rbp), %ecx
	imull	-60(%rbp), %ecx
	movl	-56(%rbp), %edx
	addl	$2, %edx
	addl	%edx, %ecx
	movslq	%ecx, %rsi
	vmovsd	%xmm0, (%rax,%rsi,8)
	vmovsd	-104(%rbp), %xmm0               ## xmm0 = mem[0],zero
	movq	-16(%rbp), %rax
	movl	-20(%rbp), %ecx
	imull	-60(%rbp), %ecx
	movl	-56(%rbp), %edx
	addl	$3, %edx
	addl	%edx, %ecx
	movslq	%ecx, %rsi
	vmovsd	%xmm0, (%rax,%rsi,8)
	vmovsd	-112(%rbp), %xmm0               ## xmm0 = mem[0],zero
	movq	-16(%rbp), %rax
	movl	-20(%rbp), %ecx
	imull	-60(%rbp), %ecx
	movl	-56(%rbp), %edx
	addl	$4, %edx
	addl	%edx, %ecx
	movslq	%ecx, %rsi
	vmovsd	%xmm0, (%rax,%rsi,8)
	vmovsd	-120(%rbp), %xmm0               ## xmm0 = mem[0],zero
	movq	-16(%rbp), %rax
	movl	-20(%rbp), %ecx
	imull	-60(%rbp), %ecx
	movl	-56(%rbp), %edx
	addl	$5, %edx
	addl	%edx, %ecx
	movslq	%ecx, %rsi
	vmovsd	%xmm0, (%rax,%rsi,8)
	vmovsd	-128(%rbp), %xmm0               ## xmm0 = mem[0],zero
	movq	-16(%rbp), %rax
	movl	-20(%rbp), %ecx
	imull	-60(%rbp), %ecx
	movl	-56(%rbp), %edx
	addl	$6, %edx
	addl	%edx, %ecx
	movslq	%ecx, %rsi
	vmovsd	%xmm0, (%rax,%rsi,8)
	vmovsd	-136(%rbp), %xmm0               ## xmm0 = mem[0],zero
	movq	-16(%rbp), %rax
	movl	-20(%rbp), %ecx
	imull	-60(%rbp), %ecx
	movl	-56(%rbp), %edx
	addl	$7, %edx
	addl	%edx, %ecx
	movslq	%ecx, %rsi
	vmovsd	%xmm0, (%rax,%rsi,8)
## %bb.29:                              ##   in Loop: Header=BB19_27 Depth=2
	movl	-56(%rbp), %eax
	addl	$8, %eax
	movl	%eax, -56(%rbp)
	jmp	LBB19_27
LBB19_30:                               ##   in Loop: Header=BB19_24 Depth=1
	jmp	LBB19_31
LBB19_31:                               ##   Parent Loop BB19_24 Depth=1
                                        ## =>  This Inner Loop Header: Depth=2
	movl	-56(%rbp), %eax
	cmpl	-4(%rbp), %eax
	jge	LBB19_34
## %bb.32:                              ##   in Loop: Header=BB19_31 Depth=2
	movq	-16(%rbp), %rax
	movl	-20(%rbp), %ecx
	imull	-48(%rbp), %ecx
	movl	-56(%rbp), %edx
	addl	$0, %edx
	addl	%edx, %ecx
	movslq	%ecx, %rsi
	vmovsd	(%rax,%rsi,8), %xmm0            ## xmm0 = mem[0],zero
	vmovsd	%xmm0, -80(%rbp)
	movq	-16(%rbp), %rax
	movl	-20(%rbp), %ecx
	imull	-60(%rbp), %ecx
	movl	-56(%rbp), %edx
	addl	$0, %edx
	addl	%edx, %ecx
	movslq	%ecx, %rsi
	vmovsd	(%rax,%rsi,8), %xmm0            ## xmm0 = mem[0],zero
	vmovsd	%xmm0, -144(%rbp)
	vmovsd	-80(%rbp), %xmm0                ## xmm0 = mem[0],zero
	movq	-16(%rbp), %rax
	movl	-20(%rbp), %ecx
	imull	-60(%rbp), %ecx
	movl	-56(%rbp), %edx
	addl	$0, %edx
	addl	%edx, %ecx
	movslq	%ecx, %rsi
	vmovsd	%xmm0, (%rax,%rsi,8)
	vmovsd	-144(%rbp), %xmm0               ## xmm0 = mem[0],zero
	movq	-16(%rbp), %rax
	movl	-20(%rbp), %ecx
	imull	-48(%rbp), %ecx
	movl	-56(%rbp), %edx
	addl	$0, %edx
	addl	%edx, %ecx
	movslq	%ecx, %rsi
	vmovsd	%xmm0, (%rax,%rsi,8)
## %bb.33:                              ##   in Loop: Header=BB19_31 Depth=2
	movl	-56(%rbp), %eax
	addl	$1, %eax
	movl	%eax, -56(%rbp)
	jmp	LBB19_31
LBB19_34:                               ##   in Loop: Header=BB19_24 Depth=1
	jmp	LBB19_35
LBB19_35:                               ##   in Loop: Header=BB19_24 Depth=1
	jmp	LBB19_36
LBB19_36:                               ##   in Loop: Header=BB19_24 Depth=1
	movl	-48(%rbp), %eax
	addl	$1, %eax
	movl	%eax, -48(%rbp)
	jmp	LBB19_24
LBB19_37:
	jmp	LBB19_38
LBB19_38:
	addq	$208, %rsp
	popq	%rbp
	retq
	.cfi_endproc
                                        ## -- End function
	.p2align	4, 0x90                         ## -- Begin function dtrsm_L_2
_dtrsm_L_2:                             ## @dtrsm_L_2
	.cfi_startproc
## %bb.0:
	pushq	%rbp
	.cfi_def_cfa_offset 16
	.cfi_offset %rbp, -16
	movq	%rsp, %rbp
	.cfi_def_cfa_register %rbp
	movl	%edi, -4(%rbp)
	movl	%esi, -8(%rbp)
	movq	%rdx, -16(%rbp)
	movl	%ecx, -20(%rbp)
	movq	%r8, -32(%rbp)
	movl	%r9d, -36(%rbp)
	movl	$0, -44(%rbp)
LBB20_1:                                ## =>This Loop Header: Depth=1
                                        ##     Child Loop BB20_3 Depth 2
                                        ##       Child Loop BB20_5 Depth 3
	movl	-44(%rbp), %eax
	cmpl	-8(%rbp), %eax
	jge	LBB20_12
## %bb.2:                               ##   in Loop: Header=BB20_1 Depth=1
	movl	$0, -48(%rbp)
LBB20_3:                                ##   Parent Loop BB20_1 Depth=1
                                        ## =>  This Loop Header: Depth=2
                                        ##       Child Loop BB20_5 Depth 3
	movl	-48(%rbp), %eax
	cmpl	-4(%rbp), %eax
	jge	LBB20_10
## %bb.4:                               ##   in Loop: Header=BB20_3 Depth=2
	movl	-48(%rbp), %eax
	addl	$1, %eax
	movl	%eax, -40(%rbp)
LBB20_5:                                ##   Parent Loop BB20_1 Depth=1
                                        ##     Parent Loop BB20_3 Depth=2
                                        ## =>    This Inner Loop Header: Depth=3
	movl	-40(%rbp), %eax
	cmpl	-4(%rbp), %eax
	jge	LBB20_8
## %bb.6:                               ##   in Loop: Header=BB20_5 Depth=3
	movq	-32(%rbp), %rax
	movl	-36(%rbp), %ecx
	imull	-40(%rbp), %ecx
	addl	-44(%rbp), %ecx
	movslq	%ecx, %rdx
	vmovsd	(%rax,%rdx,8), %xmm0            ## xmm0 = mem[0],zero
	movq	-32(%rbp), %rax
	movl	-36(%rbp), %ecx
	imull	-48(%rbp), %ecx
	addl	-44(%rbp), %ecx
	movslq	%ecx, %rdx
	vmovsd	(%rax,%rdx,8), %xmm1            ## xmm1 = mem[0],zero
	movq	-16(%rbp), %rax
	movl	-20(%rbp), %ecx
	imull	-40(%rbp), %ecx
	addl	-48(%rbp), %ecx
	movslq	%ecx, %rdx
	vmulsd	(%rax,%rdx,8), %xmm1, %xmm1
	vsubsd	%xmm1, %xmm0, %xmm0
	movq	-32(%rbp), %rax
	movl	-36(%rbp), %ecx
	imull	-40(%rbp), %ecx
	addl	-44(%rbp), %ecx
	movslq	%ecx, %rdx
	vmovsd	%xmm0, (%rax,%rdx,8)
## %bb.7:                               ##   in Loop: Header=BB20_5 Depth=3
	movl	-40(%rbp), %eax
	addl	$1, %eax
	movl	%eax, -40(%rbp)
	jmp	LBB20_5
LBB20_8:                                ##   in Loop: Header=BB20_3 Depth=2
	jmp	LBB20_9
LBB20_9:                                ##   in Loop: Header=BB20_3 Depth=2
	movl	-48(%rbp), %eax
	addl	$1, %eax
	movl	%eax, -48(%rbp)
	jmp	LBB20_3
LBB20_10:                               ##   in Loop: Header=BB20_1 Depth=1
	jmp	LBB20_11
LBB20_11:                               ##   in Loop: Header=BB20_1 Depth=1
	movl	-44(%rbp), %eax
	addl	$1, %eax
	movl	%eax, -44(%rbp)
	jmp	LBB20_1
LBB20_12:
	popq	%rbp
	retq
	.cfi_endproc
                                        ## -- End function
	.section	__TEXT,__literal8,8byte_literals
	.p2align	3                               ## -- Begin function dgemm_2
LCPI21_0:
	.quad	0x3bc79ca10c924223              ## double 9.9999999999999995E-21
LCPI21_2:
	.quad	0x3ff0000000000000              ## double 1
LCPI21_3:
	.quad	0xbff0000000000000              ## double -1
	.section	__TEXT,__literal16,16byte_literals
	.p2align	4
LCPI21_1:
	.quad	0x7fffffffffffffff              ## double NaN
	.quad	0x7fffffffffffffff              ## double NaN
	.section	__TEXT,__text,regular,pure_instructions
	.p2align	4, 0x90
_dgemm_2:                               ## @dgemm_2
	.cfi_startproc
## %bb.0:
	pushq	%rbp
	.cfi_def_cfa_offset 16
	.cfi_offset %rbp, -16
	movq	%rsp, %rbp
	.cfi_def_cfa_register %rbp
	pushq	%rbx
	subq	$584, %rsp                      ## imm = 0x248
	.cfi_offset %rbx, -24
	movl	32(%rbp), %eax
	movq	24(%rbp), %r10
	movl	16(%rbp), %r11d
	vmovsd	LCPI21_0(%rip), %xmm2           ## xmm2 = mem[0],zero
	vmovsd	LCPI21_2(%rip), %xmm3           ## xmm3 = mem[0],zero
	movl	%edi, -12(%rbp)
	movl	%esi, -16(%rbp)
	movl	%edx, -20(%rbp)
	vmovsd	%xmm0, -32(%rbp)
	movq	%rcx, -40(%rbp)
	movl	%r8d, -44(%rbp)
	movq	%r9, -56(%rbp)
	vmovsd	%xmm1, -64(%rbp)
	vmovsd	-64(%rbp), %xmm0                ## xmm0 = mem[0],zero
	vsubsd	%xmm3, %xmm0, %xmm0
	vmovdqa	LCPI21_1(%rip), %xmm1           ## xmm1 = [NaN,NaN]
	vpand	%xmm1, %xmm0, %xmm0
	vucomisd	%xmm0, %xmm2
	setae	%bl
	xorb	$-1, %bl
	andb	$1, %bl
	movzbl	%bl, %edx
	movslq	%edx, %rcx
	cmpq	$0, %rcx
	je	LBB21_2
## %bb.1:
	leaq	L___func__.dgemm_2(%rip), %rdi
	leaq	L_.str.1(%rip), %rsi
	leaq	L_.str.2(%rip), %rcx
	movl	$985, %edx                      ## imm = 0x3D9
	callq	___assert_rtn
LBB21_2:
	jmp	LBB21_3
LBB21_3:
	vmovsd	LCPI21_0(%rip), %xmm0           ## xmm0 = mem[0],zero
	vmovsd	LCPI21_3(%rip), %xmm1           ## xmm1 = mem[0],zero
	vmovsd	-32(%rbp), %xmm2                ## xmm2 = mem[0],zero
	vsubsd	%xmm1, %xmm2, %xmm1
	vmovdqa	LCPI21_1(%rip), %xmm2           ## xmm2 = [NaN,NaN]
	vpand	%xmm2, %xmm1, %xmm1
	vucomisd	%xmm1, %xmm0
	setae	%al
	xorb	$-1, %al
	andb	$1, %al
	movzbl	%al, %ecx
	movslq	%ecx, %rdx
	cmpq	$0, %rdx
	je	LBB21_5
## %bb.4:
	leaq	L___func__.dgemm_2(%rip), %rdi
	leaq	L_.str.1(%rip), %rsi
	leaq	L_.str.3(%rip), %rcx
	movl	$986, %edx                      ## imm = 0x3DA
	callq	___assert_rtn
LBB21_5:
	jmp	LBB21_6
LBB21_6:
	movl	$56, -68(%rbp)
	movl	$56, -72(%rbp)
	movl	$56, -76(%rbp)
	movl	$4, -80(%rbp)
	movl	$2, -84(%rbp)
	movl	$8, -88(%rbp)
	movl	$0, -92(%rbp)
	movl	$0, -104(%rbp)
	movl	$0, -116(%rbp)
	movl	$0, -96(%rbp)
	movl	$0, -108(%rbp)
	movl	$0, -120(%rbp)
	movl	$0, -100(%rbp)
	movl	$0, -112(%rbp)
	movl	$0, -124(%rbp)
	movl	$0, -92(%rbp)
LBB21_7:                                ## =>This Loop Header: Depth=1
                                        ##     Child Loop BB21_9 Depth 2
                                        ##       Child Loop BB21_11 Depth 3
                                        ##         Child Loop BB21_13 Depth 4
                                        ##           Child Loop BB21_15 Depth 5
                                        ##             Child Loop BB21_17 Depth 6
                                        ##       Child Loop BB21_27 Depth 3
                                        ##         Child Loop BB21_29 Depth 4
                                        ##           Child Loop BB21_31 Depth 5
                                        ##     Child Loop BB21_41 Depth 2
                                        ##       Child Loop BB21_43 Depth 3
                                        ##         Child Loop BB21_45 Depth 4
                                        ##           Child Loop BB21_47 Depth 5
                                        ##       Child Loop BB21_55 Depth 3
                                        ##         Child Loop BB21_57 Depth 4
	movl	-92(%rbp), %eax
	movl	-12(%rbp), %ecx
	subl	$56, %ecx
	cmpl	%ecx, %eax
	jg	LBB21_66
## %bb.8:                               ##   in Loop: Header=BB21_7 Depth=1
	movl	$0, -96(%rbp)
LBB21_9:                                ##   Parent Loop BB21_7 Depth=1
                                        ## =>  This Loop Header: Depth=2
                                        ##       Child Loop BB21_11 Depth 3
                                        ##         Child Loop BB21_13 Depth 4
                                        ##           Child Loop BB21_15 Depth 5
                                        ##             Child Loop BB21_17 Depth 6
                                        ##       Child Loop BB21_27 Depth 3
                                        ##         Child Loop BB21_29 Depth 4
                                        ##           Child Loop BB21_31 Depth 5
	movl	-96(%rbp), %eax
	movl	-16(%rbp), %ecx
	subl	$56, %ecx
	cmpl	%ecx, %eax
	jg	LBB21_40
## %bb.10:                              ##   in Loop: Header=BB21_9 Depth=2
	movl	$0, -100(%rbp)
LBB21_11:                               ##   Parent Loop BB21_7 Depth=1
                                        ##     Parent Loop BB21_9 Depth=2
                                        ## =>    This Loop Header: Depth=3
                                        ##         Child Loop BB21_13 Depth 4
                                        ##           Child Loop BB21_15 Depth 5
                                        ##             Child Loop BB21_17 Depth 6
	movl	-100(%rbp), %eax
	movl	-20(%rbp), %ecx
	subl	$56, %ecx
	cmpl	%ecx, %eax
	jg	LBB21_26
## %bb.12:                              ##   in Loop: Header=BB21_11 Depth=3
	movl	-92(%rbp), %eax
	movl	%eax, -104(%rbp)
LBB21_13:                               ##   Parent Loop BB21_7 Depth=1
                                        ##     Parent Loop BB21_9 Depth=2
                                        ##       Parent Loop BB21_11 Depth=3
                                        ## =>      This Loop Header: Depth=4
                                        ##           Child Loop BB21_15 Depth 5
                                        ##             Child Loop BB21_17 Depth 6
	movl	-104(%rbp), %eax
	movl	-92(%rbp), %ecx
	addl	$56, %ecx
	subl	$4, %ecx
	cmpl	%ecx, %eax
	jg	LBB21_24
## %bb.14:                              ##   in Loop: Header=BB21_13 Depth=4
	movl	-96(%rbp), %eax
	movl	%eax, -108(%rbp)
LBB21_15:                               ##   Parent Loop BB21_7 Depth=1
                                        ##     Parent Loop BB21_9 Depth=2
                                        ##       Parent Loop BB21_11 Depth=3
                                        ##         Parent Loop BB21_13 Depth=4
                                        ## =>        This Loop Header: Depth=5
                                        ##             Child Loop BB21_17 Depth 6
	movl	-108(%rbp), %eax
	movl	-96(%rbp), %ecx
	addl	$56, %ecx
	subl	$2, %ecx
	cmpl	%ecx, %eax
	jg	LBB21_22
## %bb.16:                              ##   in Loop: Header=BB21_15 Depth=5
	movl	-100(%rbp), %eax
	movl	%eax, -112(%rbp)
LBB21_17:                               ##   Parent Loop BB21_7 Depth=1
                                        ##     Parent Loop BB21_9 Depth=2
                                        ##       Parent Loop BB21_11 Depth=3
                                        ##         Parent Loop BB21_13 Depth=4
                                        ##           Parent Loop BB21_15 Depth=5
                                        ## =>          This Inner Loop Header: Depth=6
	movl	-112(%rbp), %eax
	movl	-100(%rbp), %ecx
	addl	$56, %ecx
	subl	$8, %ecx
	cmpl	%ecx, %eax
	jg	LBB21_20
## %bb.18:                              ##   in Loop: Header=BB21_17 Depth=6
	movq	24(%rbp), %rax
	movl	32(%rbp), %ecx
	movl	-104(%rbp), %edx
	addl	$0, %edx
	imull	%edx, %ecx
	movl	-108(%rbp), %edx
	addl	$0, %edx
	addl	%edx, %ecx
	movslq	%ecx, %rsi
	vmovsd	(%rax,%rsi,8), %xmm0            ## xmm0 = mem[0],zero
	vmovsd	%xmm0, -400(%rbp)
	movq	24(%rbp), %rax
	movl	32(%rbp), %ecx
	movl	-104(%rbp), %edx
	addl	$0, %edx
	imull	%edx, %ecx
	movl	-108(%rbp), %edx
	addl	$1, %edx
	addl	%edx, %ecx
	movslq	%ecx, %rsi
	vmovsd	(%rax,%rsi,8), %xmm0            ## xmm0 = mem[0],zero
	vmovsd	%xmm0, -408(%rbp)
	movq	24(%rbp), %rax
	movl	32(%rbp), %ecx
	movl	-104(%rbp), %edx
	addl	$1, %edx
	imull	%edx, %ecx
	movl	-108(%rbp), %edx
	addl	$0, %edx
	addl	%edx, %ecx
	movslq	%ecx, %rsi
	vmovsd	(%rax,%rsi,8), %xmm0            ## xmm0 = mem[0],zero
	vmovsd	%xmm0, -416(%rbp)
	movq	24(%rbp), %rax
	movl	32(%rbp), %ecx
	movl	-104(%rbp), %edx
	addl	$1, %edx
	imull	%edx, %ecx
	movl	-108(%rbp), %edx
	addl	$1, %edx
	addl	%edx, %ecx
	movslq	%ecx, %rsi
	vmovsd	(%rax,%rsi,8), %xmm0            ## xmm0 = mem[0],zero
	vmovsd	%xmm0, -424(%rbp)
	movq	24(%rbp), %rax
	movl	32(%rbp), %ecx
	movl	-104(%rbp), %edx
	addl	$2, %edx
	imull	%edx, %ecx
	movl	-108(%rbp), %edx
	addl	$0, %edx
	addl	%edx, %ecx
	movslq	%ecx, %rsi
	vmovsd	(%rax,%rsi,8), %xmm0            ## xmm0 = mem[0],zero
	vmovsd	%xmm0, -432(%rbp)
	movq	24(%rbp), %rax
	movl	32(%rbp), %ecx
	movl	-104(%rbp), %edx
	addl	$2, %edx
	imull	%edx, %ecx
	movl	-108(%rbp), %edx
	addl	$1, %edx
	addl	%edx, %ecx
	movslq	%ecx, %rsi
	vmovsd	(%rax,%rsi,8), %xmm0            ## xmm0 = mem[0],zero
	vmovsd	%xmm0, -440(%rbp)
	movq	24(%rbp), %rax
	movl	32(%rbp), %ecx
	movl	-104(%rbp), %edx
	addl	$3, %edx
	imull	%edx, %ecx
	movl	-108(%rbp), %edx
	addl	$0, %edx
	addl	%edx, %ecx
	movslq	%ecx, %rsi
	vmovsd	(%rax,%rsi,8), %xmm0            ## xmm0 = mem[0],zero
	vmovsd	%xmm0, -448(%rbp)
	movq	24(%rbp), %rax
	movl	32(%rbp), %ecx
	movl	-104(%rbp), %edx
	addl	$3, %edx
	imull	%edx, %ecx
	movl	-108(%rbp), %edx
	addl	$1, %edx
	addl	%edx, %ecx
	movslq	%ecx, %rsi
	vmovsd	(%rax,%rsi,8), %xmm0            ## xmm0 = mem[0],zero
	vmovsd	%xmm0, -456(%rbp)
	movq	-56(%rbp), %rax
	movl	16(%rbp), %ecx
	movl	-112(%rbp), %edx
	addl	$0, %edx
	imull	%edx, %ecx
	movl	-108(%rbp), %edx
	addl	$0, %edx
	addl	%edx, %ecx
	movslq	%ecx, %rsi
	vmovsd	(%rax,%rsi,8), %xmm0            ## xmm0 = mem[0],zero
	vmovsd	%xmm0, -464(%rbp)
	movq	-56(%rbp), %rax
	movl	16(%rbp), %ecx
	movl	-112(%rbp), %edx
	addl	$1, %edx
	imull	%edx, %ecx
	movl	-108(%rbp), %edx
	addl	$0, %edx
	addl	%edx, %ecx
	movslq	%ecx, %rsi
	vmovsd	(%rax,%rsi,8), %xmm0            ## xmm0 = mem[0],zero
	vmovsd	%xmm0, -480(%rbp)
	movq	-56(%rbp), %rax
	movl	16(%rbp), %ecx
	movl	-112(%rbp), %edx
	addl	$2, %edx
	imull	%edx, %ecx
	movl	-108(%rbp), %edx
	addl	$0, %edx
	addl	%edx, %ecx
	movslq	%ecx, %rsi
	vmovsd	(%rax,%rsi,8), %xmm0            ## xmm0 = mem[0],zero
	vmovsd	%xmm0, -496(%rbp)
	movq	-56(%rbp), %rax
	movl	16(%rbp), %ecx
	movl	-112(%rbp), %edx
	addl	$3, %edx
	imull	%edx, %ecx
	movl	-108(%rbp), %edx
	addl	$0, %edx
	addl	%edx, %ecx
	movslq	%ecx, %rsi
	vmovsd	(%rax,%rsi,8), %xmm0            ## xmm0 = mem[0],zero
	vmovsd	%xmm0, -512(%rbp)
	movq	-56(%rbp), %rax
	movl	16(%rbp), %ecx
	movl	-112(%rbp), %edx
	addl	$4, %edx
	imull	%edx, %ecx
	movl	-108(%rbp), %edx
	addl	$0, %edx
	addl	%edx, %ecx
	movslq	%ecx, %rsi
	vmovsd	(%rax,%rsi,8), %xmm0            ## xmm0 = mem[0],zero
	vmovsd	%xmm0, -528(%rbp)
	movq	-56(%rbp), %rax
	movl	16(%rbp), %ecx
	movl	-112(%rbp), %edx
	addl	$5, %edx
	imull	%edx, %ecx
	movl	-108(%rbp), %edx
	addl	$0, %edx
	addl	%edx, %ecx
	movslq	%ecx, %rsi
	vmovsd	(%rax,%rsi,8), %xmm0            ## xmm0 = mem[0],zero
	vmovsd	%xmm0, -544(%rbp)
	movq	-56(%rbp), %rax
	movl	16(%rbp), %ecx
	movl	-112(%rbp), %edx
	addl	$6, %edx
	imull	%edx, %ecx
	movl	-108(%rbp), %edx
	addl	$0, %edx
	addl	%edx, %ecx
	movslq	%ecx, %rsi
	vmovsd	(%rax,%rsi,8), %xmm0            ## xmm0 = mem[0],zero
	vmovsd	%xmm0, -560(%rbp)
	movq	-56(%rbp), %rax
	movl	16(%rbp), %ecx
	movl	-112(%rbp), %edx
	addl	$7, %edx
	imull	%edx, %ecx
	movl	-108(%rbp), %edx
	addl	$0, %edx
	addl	%edx, %ecx
	movslq	%ecx, %rsi
	vmovsd	(%rax,%rsi,8), %xmm0            ## xmm0 = mem[0],zero
	vmovsd	%xmm0, -576(%rbp)
	movq	-56(%rbp), %rax
	movl	16(%rbp), %ecx
	movl	-112(%rbp), %edx
	addl	$0, %edx
	imull	%edx, %ecx
	movl	-108(%rbp), %edx
	addl	$1, %edx
	addl	%edx, %ecx
	movslq	%ecx, %rsi
	vmovsd	(%rax,%rsi,8), %xmm0            ## xmm0 = mem[0],zero
	vmovsd	%xmm0, -472(%rbp)
	movq	-56(%rbp), %rax
	movl	16(%rbp), %ecx
	movl	-112(%rbp), %edx
	addl	$1, %edx
	imull	%edx, %ecx
	movl	-108(%rbp), %edx
	addl	$1, %edx
	addl	%edx, %ecx
	movslq	%ecx, %rsi
	vmovsd	(%rax,%rsi,8), %xmm0            ## xmm0 = mem[0],zero
	vmovsd	%xmm0, -488(%rbp)
	movq	-56(%rbp), %rax
	movl	16(%rbp), %ecx
	movl	-112(%rbp), %edx
	addl	$2, %edx
	imull	%edx, %ecx
	movl	-108(%rbp), %edx
	addl	$1, %edx
	addl	%edx, %ecx
	movslq	%ecx, %rsi
	vmovsd	(%rax,%rsi,8), %xmm0            ## xmm0 = mem[0],zero
	vmovsd	%xmm0, -504(%rbp)
	movq	-56(%rbp), %rax
	movl	16(%rbp), %ecx
	movl	-112(%rbp), %edx
	addl	$3, %edx
	imull	%edx, %ecx
	movl	-108(%rbp), %edx
	addl	$1, %edx
	addl	%edx, %ecx
	movslq	%ecx, %rsi
	vmovsd	(%rax,%rsi,8), %xmm0            ## xmm0 = mem[0],zero
	vmovsd	%xmm0, -520(%rbp)
	movq	-56(%rbp), %rax
	movl	16(%rbp), %ecx
	movl	-112(%rbp), %edx
	addl	$4, %edx
	imull	%edx, %ecx
	movl	-108(%rbp), %edx
	addl	$1, %edx
	addl	%edx, %ecx
	movslq	%ecx, %rsi
	vmovsd	(%rax,%rsi,8), %xmm0            ## xmm0 = mem[0],zero
	vmovsd	%xmm0, -536(%rbp)
	movq	-56(%rbp), %rax
	movl	16(%rbp), %ecx
	movl	-112(%rbp), %edx
	addl	$5, %edx
	imull	%edx, %ecx
	movl	-108(%rbp), %edx
	addl	$1, %edx
	addl	%edx, %ecx
	movslq	%ecx, %rsi
	vmovsd	(%rax,%rsi,8), %xmm0            ## xmm0 = mem[0],zero
	vmovsd	%xmm0, -552(%rbp)
	movq	-56(%rbp), %rax
	movl	16(%rbp), %ecx
	movl	-112(%rbp), %edx
	addl	$6, %edx
	imull	%edx, %ecx
	movl	-108(%rbp), %edx
	addl	$1, %edx
	addl	%edx, %ecx
	movslq	%ecx, %rsi
	vmovsd	(%rax,%rsi,8), %xmm0            ## xmm0 = mem[0],zero
	vmovsd	%xmm0, -568(%rbp)
	movq	-56(%rbp), %rax
	movl	16(%rbp), %ecx
	movl	-112(%rbp), %edx
	addl	$7, %edx
	imull	%edx, %ecx
	movl	-108(%rbp), %edx
	addl	$1, %edx
	addl	%edx, %ecx
	movslq	%ecx, %rsi
	vmovsd	(%rax,%rsi,8), %xmm0            ## xmm0 = mem[0],zero
	vmovsd	%xmm0, -584(%rbp)
	movq	-40(%rbp), %rax
	movl	-44(%rbp), %ecx
	movl	-104(%rbp), %edx
	addl	$0, %edx
	imull	%edx, %ecx
	movl	-112(%rbp), %edx
	addl	$0, %edx
	addl	%edx, %ecx
	movslq	%ecx, %rsi
	vmovsd	(%rax,%rsi,8), %xmm0            ## xmm0 = mem[0],zero
	vmovsd	%xmm0, -136(%rbp)
	movq	-40(%rbp), %rax
	movl	-44(%rbp), %ecx
	movl	-104(%rbp), %edx
	addl	$0, %edx
	imull	%edx, %ecx
	movl	-112(%rbp), %edx
	addl	$1, %edx
	addl	%edx, %ecx
	movslq	%ecx, %rsi
	vmovsd	(%rax,%rsi,8), %xmm0            ## xmm0 = mem[0],zero
	vmovsd	%xmm0, -144(%rbp)
	movq	-40(%rbp), %rax
	movl	-44(%rbp), %ecx
	movl	-104(%rbp), %edx
	addl	$0, %edx
	imull	%edx, %ecx
	movl	-112(%rbp), %edx
	addl	$2, %edx
	addl	%edx, %ecx
	movslq	%ecx, %rsi
	vmovsd	(%rax,%rsi,8), %xmm0            ## xmm0 = mem[0],zero
	vmovsd	%xmm0, -152(%rbp)
	movq	-40(%rbp), %rax
	movl	-44(%rbp), %ecx
	movl	-104(%rbp), %edx
	addl	$0, %edx
	imull	%edx, %ecx
	movl	-112(%rbp), %edx
	addl	$3, %edx
	addl	%edx, %ecx
	movslq	%ecx, %rsi
	vmovsd	(%rax,%rsi,8), %xmm0            ## xmm0 = mem[0],zero
	vmovsd	%xmm0, -160(%rbp)
	movq	-40(%rbp), %rax
	movl	-44(%rbp), %ecx
	movl	-104(%rbp), %edx
	addl	$0, %edx
	imull	%edx, %ecx
	movl	-112(%rbp), %edx
	addl	$4, %edx
	addl	%edx, %ecx
	movslq	%ecx, %rsi
	vmovsd	(%rax,%rsi,8), %xmm0            ## xmm0 = mem[0],zero
	vmovsd	%xmm0, -168(%rbp)
	movq	-40(%rbp), %rax
	movl	-44(%rbp), %ecx
	movl	-104(%rbp), %edx
	addl	$0, %edx
	imull	%edx, %ecx
	movl	-112(%rbp), %edx
	addl	$5, %edx
	addl	%edx, %ecx
	movslq	%ecx, %rsi
	vmovsd	(%rax,%rsi,8), %xmm0            ## xmm0 = mem[0],zero
	vmovsd	%xmm0, -176(%rbp)
	movq	-40(%rbp), %rax
	movl	-44(%rbp), %ecx
	movl	-104(%rbp), %edx
	addl	$0, %edx
	imull	%edx, %ecx
	movl	-112(%rbp), %edx
	addl	$6, %edx
	addl	%edx, %ecx
	movslq	%ecx, %rsi
	vmovsd	(%rax,%rsi,8), %xmm0            ## xmm0 = mem[0],zero
	vmovsd	%xmm0, -184(%rbp)
	movq	-40(%rbp), %rax
	movl	-44(%rbp), %ecx
	movl	-104(%rbp), %edx
	addl	$0, %edx
	imull	%edx, %ecx
	movl	-112(%rbp), %edx
	addl	$7, %edx
	addl	%edx, %ecx
	movslq	%ecx, %rsi
	vmovsd	(%rax,%rsi,8), %xmm0            ## xmm0 = mem[0],zero
	vmovsd	%xmm0, -192(%rbp)
	movq	-40(%rbp), %rax
	movl	-44(%rbp), %ecx
	movl	-104(%rbp), %edx
	addl	$1, %edx
	imull	%edx, %ecx
	movl	-112(%rbp), %edx
	addl	$0, %edx
	addl	%edx, %ecx
	movslq	%ecx, %rsi
	vmovsd	(%rax,%rsi,8), %xmm0            ## xmm0 = mem[0],zero
	vmovsd	%xmm0, -200(%rbp)
	movq	-40(%rbp), %rax
	movl	-44(%rbp), %ecx
	movl	-104(%rbp), %edx
	addl	$1, %edx
	imull	%edx, %ecx
	movl	-112(%rbp), %edx
	addl	$1, %edx
	addl	%edx, %ecx
	movslq	%ecx, %rsi
	vmovsd	(%rax,%rsi,8), %xmm0            ## xmm0 = mem[0],zero
	vmovsd	%xmm0, -208(%rbp)
	movq	-40(%rbp), %rax
	movl	-44(%rbp), %ecx
	movl	-104(%rbp), %edx
	addl	$1, %edx
	imull	%edx, %ecx
	movl	-112(%rbp), %edx
	addl	$2, %edx
	addl	%edx, %ecx
	movslq	%ecx, %rsi
	vmovsd	(%rax,%rsi,8), %xmm0            ## xmm0 = mem[0],zero
	vmovsd	%xmm0, -216(%rbp)
	movq	-40(%rbp), %rax
	movl	-44(%rbp), %ecx
	movl	-104(%rbp), %edx
	addl	$1, %edx
	imull	%edx, %ecx
	movl	-112(%rbp), %edx
	addl	$3, %edx
	addl	%edx, %ecx
	movslq	%ecx, %rsi
	vmovsd	(%rax,%rsi,8), %xmm0            ## xmm0 = mem[0],zero
	vmovsd	%xmm0, -224(%rbp)
	movq	-40(%rbp), %rax
	movl	-44(%rbp), %ecx
	movl	-104(%rbp), %edx
	addl	$1, %edx
	imull	%edx, %ecx
	movl	-112(%rbp), %edx
	addl	$4, %edx
	addl	%edx, %ecx
	movslq	%ecx, %rsi
	vmovsd	(%rax,%rsi,8), %xmm0            ## xmm0 = mem[0],zero
	vmovsd	%xmm0, -232(%rbp)
	movq	-40(%rbp), %rax
	movl	-44(%rbp), %ecx
	movl	-104(%rbp), %edx
	addl	$1, %edx
	imull	%edx, %ecx
	movl	-112(%rbp), %edx
	addl	$5, %edx
	addl	%edx, %ecx
	movslq	%ecx, %rsi
	vmovsd	(%rax,%rsi,8), %xmm0            ## xmm0 = mem[0],zero
	vmovsd	%xmm0, -240(%rbp)
	movq	-40(%rbp), %rax
	movl	-44(%rbp), %ecx
	movl	-104(%rbp), %edx
	addl	$1, %edx
	imull	%edx, %ecx
	movl	-112(%rbp), %edx
	addl	$6, %edx
	addl	%edx, %ecx
	movslq	%ecx, %rsi
	vmovsd	(%rax,%rsi,8), %xmm0            ## xmm0 = mem[0],zero
	vmovsd	%xmm0, -248(%rbp)
	movq	-40(%rbp), %rax
	movl	-44(%rbp), %ecx
	movl	-104(%rbp), %edx
	addl	$1, %edx
	imull	%edx, %ecx
	movl	-112(%rbp), %edx
	addl	$7, %edx
	addl	%edx, %ecx
	movslq	%ecx, %rsi
	vmovsd	(%rax,%rsi,8), %xmm0            ## xmm0 = mem[0],zero
	vmovsd	%xmm0, -256(%rbp)
	movq	-40(%rbp), %rax
	movl	-44(%rbp), %ecx
	movl	-104(%rbp), %edx
	addl	$2, %edx
	imull	%edx, %ecx
	movl	-112(%rbp), %edx
	addl	$0, %edx
	addl	%edx, %ecx
	movslq	%ecx, %rsi
	vmovsd	(%rax,%rsi,8), %xmm0            ## xmm0 = mem[0],zero
	vmovsd	%xmm0, -264(%rbp)
	movq	-40(%rbp), %rax
	movl	-44(%rbp), %ecx
	movl	-104(%rbp), %edx
	addl	$2, %edx
	imull	%edx, %ecx
	movl	-112(%rbp), %edx
	addl	$1, %edx
	addl	%edx, %ecx
	movslq	%ecx, %rsi
	vmovsd	(%rax,%rsi,8), %xmm0            ## xmm0 = mem[0],zero
	vmovsd	%xmm0, -272(%rbp)
	movq	-40(%rbp), %rax
	movl	-44(%rbp), %ecx
	movl	-104(%rbp), %edx
	addl	$2, %edx
	imull	%edx, %ecx
	movl	-112(%rbp), %edx
	addl	$2, %edx
	addl	%edx, %ecx
	movslq	%ecx, %rsi
	vmovsd	(%rax,%rsi,8), %xmm0            ## xmm0 = mem[0],zero
	vmovsd	%xmm0, -280(%rbp)
	movq	-40(%rbp), %rax
	movl	-44(%rbp), %ecx
	movl	-104(%rbp), %edx
	addl	$2, %edx
	imull	%edx, %ecx
	movl	-112(%rbp), %edx
	addl	$3, %edx
	addl	%edx, %ecx
	movslq	%ecx, %rsi
	vmovsd	(%rax,%rsi,8), %xmm0            ## xmm0 = mem[0],zero
	vmovsd	%xmm0, -288(%rbp)
	movq	-40(%rbp), %rax
	movl	-44(%rbp), %ecx
	movl	-104(%rbp), %edx
	addl	$2, %edx
	imull	%edx, %ecx
	movl	-112(%rbp), %edx
	addl	$4, %edx
	addl	%edx, %ecx
	movslq	%ecx, %rsi
	vmovsd	(%rax,%rsi,8), %xmm0            ## xmm0 = mem[0],zero
	vmovsd	%xmm0, -296(%rbp)
	movq	-40(%rbp), %rax
	movl	-44(%rbp), %ecx
	movl	-104(%rbp), %edx
	addl	$2, %edx
	imull	%edx, %ecx
	movl	-112(%rbp), %edx
	addl	$5, %edx
	addl	%edx, %ecx
	movslq	%ecx, %rsi
	vmovsd	(%rax,%rsi,8), %xmm0            ## xmm0 = mem[0],zero
	vmovsd	%xmm0, -304(%rbp)
	movq	-40(%rbp), %rax
	movl	-44(%rbp), %ecx
	movl	-104(%rbp), %edx
	addl	$2, %edx
	imull	%edx, %ecx
	movl	-112(%rbp), %edx
	addl	$6, %edx
	addl	%edx, %ecx
	movslq	%ecx, %rsi
	vmovsd	(%rax,%rsi,8), %xmm0            ## xmm0 = mem[0],zero
	vmovsd	%xmm0, -312(%rbp)
	movq	-40(%rbp), %rax
	movl	-44(%rbp), %ecx
	movl	-104(%rbp), %edx
	addl	$2, %edx
	imull	%edx, %ecx
	movl	-112(%rbp), %edx
	addl	$7, %edx
	addl	%edx, %ecx
	movslq	%ecx, %rsi
	vmovsd	(%rax,%rsi,8), %xmm0            ## xmm0 = mem[0],zero
	vmovsd	%xmm0, -320(%rbp)
	movq	-40(%rbp), %rax
	movl	-44(%rbp), %ecx
	movl	-104(%rbp), %edx
	addl	$3, %edx
	imull	%edx, %ecx
	movl	-112(%rbp), %edx
	addl	$0, %edx
	addl	%edx, %ecx
	movslq	%ecx, %rsi
	vmovsd	(%rax,%rsi,8), %xmm0            ## xmm0 = mem[0],zero
	vmovsd	%xmm0, -328(%rbp)
	movq	-40(%rbp), %rax
	movl	-44(%rbp), %ecx
	movl	-104(%rbp), %edx
	addl	$3, %edx
	imull	%edx, %ecx
	movl	-112(%rbp), %edx
	addl	$1, %edx
	addl	%edx, %ecx
	movslq	%ecx, %rsi
	vmovsd	(%rax,%rsi,8), %xmm0            ## xmm0 = mem[0],zero
	vmovsd	%xmm0, -336(%rbp)
	movq	-40(%rbp), %rax
	movl	-44(%rbp), %ecx
	movl	-104(%rbp), %edx
	addl	$3, %edx
	imull	%edx, %ecx
	movl	-112(%rbp), %edx
	addl	$2, %edx
	addl	%edx, %ecx
	movslq	%ecx, %rsi
	vmovsd	(%rax,%rsi,8), %xmm0            ## xmm0 = mem[0],zero
	vmovsd	%xmm0, -344(%rbp)
	movq	-40(%rbp), %rax
	movl	-44(%rbp), %ecx
	movl	-104(%rbp), %edx
	addl	$3, %edx
	imull	%edx, %ecx
	movl	-112(%rbp), %edx
	addl	$3, %edx
	addl	%edx, %ecx
	movslq	%ecx, %rsi
	vmovsd	(%rax,%rsi,8), %xmm0            ## xmm0 = mem[0],zero
	vmovsd	%xmm0, -352(%rbp)
	movq	-40(%rbp), %rax
	movl	-44(%rbp), %ecx
	movl	-104(%rbp), %edx
	addl	$3, %edx
	imull	%edx, %ecx
	movl	-112(%rbp), %edx
	addl	$4, %edx
	addl	%edx, %ecx
	movslq	%ecx, %rsi
	vmovsd	(%rax,%rsi,8), %xmm0            ## xmm0 = mem[0],zero
	vmovsd	%xmm0, -360(%rbp)
	movq	-40(%rbp), %rax
	movl	-44(%rbp), %ecx
	movl	-104(%rbp), %edx
	addl	$3, %edx
	imull	%edx, %ecx
	movl	-112(%rbp), %edx
	addl	$5, %edx
	addl	%edx, %ecx
	movslq	%ecx, %rsi
	vmovsd	(%rax,%rsi,8), %xmm0            ## xmm0 = mem[0],zero
	vmovsd	%xmm0, -368(%rbp)
	movq	-40(%rbp), %rax
	movl	-44(%rbp), %ecx
	movl	-104(%rbp), %edx
	addl	$3, %edx
	imull	%edx, %ecx
	movl	-112(%rbp), %edx
	addl	$6, %edx
	addl	%edx, %ecx
	movslq	%ecx, %rsi
	vmovsd	(%rax,%rsi,8), %xmm0            ## xmm0 = mem[0],zero
	vmovsd	%xmm0, -376(%rbp)
	movq	-40(%rbp), %rax
	movl	-44(%rbp), %ecx
	movl	-104(%rbp), %edx
	addl	$3, %edx
	imull	%edx, %ecx
	movl	-112(%rbp), %edx
	addl	$7, %edx
	addl	%edx, %ecx
	movslq	%ecx, %rsi
	vmovsd	(%rax,%rsi,8), %xmm0            ## xmm0 = mem[0],zero
	vmovsd	%xmm0, -384(%rbp)
	movq	-40(%rbp), %rax
	movl	-44(%rbp), %ecx
	movl	-104(%rbp), %edx
	addl	$3, %edx
	imull	%edx, %ecx
	movl	-112(%rbp), %edx
	addl	$8, %edx
	addl	%edx, %ecx
	movslq	%ecx, %rsi
	vmovsd	(%rax,%rsi,8), %xmm0            ## xmm0 = mem[0],zero
	vmovsd	%xmm0, -392(%rbp)
	vmovsd	-464(%rbp), %xmm0               ## xmm0 = mem[0],zero
	vmulsd	-136(%rbp), %xmm0, %xmm0
	vmovsd	-400(%rbp), %xmm1               ## xmm1 = mem[0],zero
	vsubsd	%xmm0, %xmm1, %xmm0
	vmovsd	%xmm0, -400(%rbp)
	vmovsd	-472(%rbp), %xmm0               ## xmm0 = mem[0],zero
	vmulsd	-136(%rbp), %xmm0, %xmm0
	vmovsd	-408(%rbp), %xmm1               ## xmm1 = mem[0],zero
	vsubsd	%xmm0, %xmm1, %xmm0
	vmovsd	%xmm0, -408(%rbp)
	vmovsd	-464(%rbp), %xmm0               ## xmm0 = mem[0],zero
	vmulsd	-200(%rbp), %xmm0, %xmm0
	vmovsd	-416(%rbp), %xmm1               ## xmm1 = mem[0],zero
	vsubsd	%xmm0, %xmm1, %xmm0
	vmovsd	%xmm0, -416(%rbp)
	vmovsd	-472(%rbp), %xmm0               ## xmm0 = mem[0],zero
	vmulsd	-200(%rbp), %xmm0, %xmm0
	vmovsd	-424(%rbp), %xmm1               ## xmm1 = mem[0],zero
	vsubsd	%xmm0, %xmm1, %xmm0
	vmovsd	%xmm0, -424(%rbp)
	vmovsd	-464(%rbp), %xmm0               ## xmm0 = mem[0],zero
	vmulsd	-264(%rbp), %xmm0, %xmm0
	vmovsd	-432(%rbp), %xmm1               ## xmm1 = mem[0],zero
	vsubsd	%xmm0, %xmm1, %xmm0
	vmovsd	%xmm0, -432(%rbp)
	vmovsd	-472(%rbp), %xmm0               ## xmm0 = mem[0],zero
	vmulsd	-264(%rbp), %xmm0, %xmm0
	vmovsd	-440(%rbp), %xmm1               ## xmm1 = mem[0],zero
	vsubsd	%xmm0, %xmm1, %xmm0
	vmovsd	%xmm0, -440(%rbp)
	vmovsd	-464(%rbp), %xmm0               ## xmm0 = mem[0],zero
	vmulsd	-328(%rbp), %xmm0, %xmm0
	vmovsd	-448(%rbp), %xmm1               ## xmm1 = mem[0],zero
	vsubsd	%xmm0, %xmm1, %xmm0
	vmovsd	%xmm0, -448(%rbp)
	vmovsd	-472(%rbp), %xmm0               ## xmm0 = mem[0],zero
	vmulsd	-328(%rbp), %xmm0, %xmm0
	vmovsd	-456(%rbp), %xmm1               ## xmm1 = mem[0],zero
	vsubsd	%xmm0, %xmm1, %xmm0
	vmovsd	%xmm0, -456(%rbp)
	vmovsd	-480(%rbp), %xmm0               ## xmm0 = mem[0],zero
	vmulsd	-144(%rbp), %xmm0, %xmm0
	vmovsd	-400(%rbp), %xmm1               ## xmm1 = mem[0],zero
	vsubsd	%xmm0, %xmm1, %xmm0
	vmovsd	%xmm0, -400(%rbp)
	vmovsd	-488(%rbp), %xmm0               ## xmm0 = mem[0],zero
	vmulsd	-144(%rbp), %xmm0, %xmm0
	vmovsd	-408(%rbp), %xmm1               ## xmm1 = mem[0],zero
	vsubsd	%xmm0, %xmm1, %xmm0
	vmovsd	%xmm0, -408(%rbp)
	vmovsd	-480(%rbp), %xmm0               ## xmm0 = mem[0],zero
	vmulsd	-208(%rbp), %xmm0, %xmm0
	vmovsd	-416(%rbp), %xmm1               ## xmm1 = mem[0],zero
	vsubsd	%xmm0, %xmm1, %xmm0
	vmovsd	%xmm0, -416(%rbp)
	vmovsd	-488(%rbp), %xmm0               ## xmm0 = mem[0],zero
	vmulsd	-208(%rbp), %xmm0, %xmm0
	vmovsd	-424(%rbp), %xmm1               ## xmm1 = mem[0],zero
	vsubsd	%xmm0, %xmm1, %xmm0
	vmovsd	%xmm0, -424(%rbp)
	vmovsd	-480(%rbp), %xmm0               ## xmm0 = mem[0],zero
	vmulsd	-272(%rbp), %xmm0, %xmm0
	vmovsd	-432(%rbp), %xmm1               ## xmm1 = mem[0],zero
	vsubsd	%xmm0, %xmm1, %xmm0
	vmovsd	%xmm0, -432(%rbp)
	vmovsd	-488(%rbp), %xmm0               ## xmm0 = mem[0],zero
	vmulsd	-272(%rbp), %xmm0, %xmm0
	vmovsd	-440(%rbp), %xmm1               ## xmm1 = mem[0],zero
	vsubsd	%xmm0, %xmm1, %xmm0
	vmovsd	%xmm0, -440(%rbp)
	vmovsd	-480(%rbp), %xmm0               ## xmm0 = mem[0],zero
	vmulsd	-336(%rbp), %xmm0, %xmm0
	vmovsd	-448(%rbp), %xmm1               ## xmm1 = mem[0],zero
	vsubsd	%xmm0, %xmm1, %xmm0
	vmovsd	%xmm0, -448(%rbp)
	vmovsd	-488(%rbp), %xmm0               ## xmm0 = mem[0],zero
	vmulsd	-336(%rbp), %xmm0, %xmm0
	vmovsd	-456(%rbp), %xmm1               ## xmm1 = mem[0],zero
	vsubsd	%xmm0, %xmm1, %xmm0
	vmovsd	%xmm0, -456(%rbp)
	vmovsd	-496(%rbp), %xmm0               ## xmm0 = mem[0],zero
	vmulsd	-152(%rbp), %xmm0, %xmm0
	vmovsd	-400(%rbp), %xmm1               ## xmm1 = mem[0],zero
	vsubsd	%xmm0, %xmm1, %xmm0
	vmovsd	%xmm0, -400(%rbp)
	vmovsd	-504(%rbp), %xmm0               ## xmm0 = mem[0],zero
	vmulsd	-152(%rbp), %xmm0, %xmm0
	vmovsd	-408(%rbp), %xmm1               ## xmm1 = mem[0],zero
	vsubsd	%xmm0, %xmm1, %xmm0
	vmovsd	%xmm0, -408(%rbp)
	vmovsd	-496(%rbp), %xmm0               ## xmm0 = mem[0],zero
	vmulsd	-216(%rbp), %xmm0, %xmm0
	vmovsd	-416(%rbp), %xmm1               ## xmm1 = mem[0],zero
	vsubsd	%xmm0, %xmm1, %xmm0
	vmovsd	%xmm0, -416(%rbp)
	vmovsd	-504(%rbp), %xmm0               ## xmm0 = mem[0],zero
	vmulsd	-216(%rbp), %xmm0, %xmm0
	vmovsd	-424(%rbp), %xmm1               ## xmm1 = mem[0],zero
	vsubsd	%xmm0, %xmm1, %xmm0
	vmovsd	%xmm0, -424(%rbp)
	vmovsd	-496(%rbp), %xmm0               ## xmm0 = mem[0],zero
	vmulsd	-280(%rbp), %xmm0, %xmm0
	vmovsd	-432(%rbp), %xmm1               ## xmm1 = mem[0],zero
	vsubsd	%xmm0, %xmm1, %xmm0
	vmovsd	%xmm0, -432(%rbp)
	vmovsd	-504(%rbp), %xmm0               ## xmm0 = mem[0],zero
	vmulsd	-280(%rbp), %xmm0, %xmm0
	vmovsd	-440(%rbp), %xmm1               ## xmm1 = mem[0],zero
	vsubsd	%xmm0, %xmm1, %xmm0
	vmovsd	%xmm0, -440(%rbp)
	vmovsd	-496(%rbp), %xmm0               ## xmm0 = mem[0],zero
	vmulsd	-344(%rbp), %xmm0, %xmm0
	vmovsd	-448(%rbp), %xmm1               ## xmm1 = mem[0],zero
	vsubsd	%xmm0, %xmm1, %xmm0
	vmovsd	%xmm0, -448(%rbp)
	vmovsd	-504(%rbp), %xmm0               ## xmm0 = mem[0],zero
	vmulsd	-344(%rbp), %xmm0, %xmm0
	vmovsd	-456(%rbp), %xmm1               ## xmm1 = mem[0],zero
	vsubsd	%xmm0, %xmm1, %xmm0
	vmovsd	%xmm0, -456(%rbp)
	vmovsd	-512(%rbp), %xmm0               ## xmm0 = mem[0],zero
	vmulsd	-160(%rbp), %xmm0, %xmm0
	vmovsd	-400(%rbp), %xmm1               ## xmm1 = mem[0],zero
	vsubsd	%xmm0, %xmm1, %xmm0
	vmovsd	%xmm0, -400(%rbp)
	vmovsd	-520(%rbp), %xmm0               ## xmm0 = mem[0],zero
	vmulsd	-160(%rbp), %xmm0, %xmm0
	vmovsd	-408(%rbp), %xmm1               ## xmm1 = mem[0],zero
	vsubsd	%xmm0, %xmm1, %xmm0
	vmovsd	%xmm0, -408(%rbp)
	vmovsd	-512(%rbp), %xmm0               ## xmm0 = mem[0],zero
	vmulsd	-224(%rbp), %xmm0, %xmm0
	vmovsd	-416(%rbp), %xmm1               ## xmm1 = mem[0],zero
	vsubsd	%xmm0, %xmm1, %xmm0
	vmovsd	%xmm0, -416(%rbp)
	vmovsd	-520(%rbp), %xmm0               ## xmm0 = mem[0],zero
	vmulsd	-224(%rbp), %xmm0, %xmm0
	vmovsd	-424(%rbp), %xmm1               ## xmm1 = mem[0],zero
	vsubsd	%xmm0, %xmm1, %xmm0
	vmovsd	%xmm0, -424(%rbp)
	vmovsd	-512(%rbp), %xmm0               ## xmm0 = mem[0],zero
	vmulsd	-288(%rbp), %xmm0, %xmm0
	vmovsd	-432(%rbp), %xmm1               ## xmm1 = mem[0],zero
	vsubsd	%xmm0, %xmm1, %xmm0
	vmovsd	%xmm0, -432(%rbp)
	vmovsd	-520(%rbp), %xmm0               ## xmm0 = mem[0],zero
	vmulsd	-288(%rbp), %xmm0, %xmm0
	vmovsd	-440(%rbp), %xmm1               ## xmm1 = mem[0],zero
	vsubsd	%xmm0, %xmm1, %xmm0
	vmovsd	%xmm0, -440(%rbp)
	vmovsd	-512(%rbp), %xmm0               ## xmm0 = mem[0],zero
	vmulsd	-352(%rbp), %xmm0, %xmm0
	vmovsd	-448(%rbp), %xmm1               ## xmm1 = mem[0],zero
	vsubsd	%xmm0, %xmm1, %xmm0
	vmovsd	%xmm0, -448(%rbp)
	vmovsd	-520(%rbp), %xmm0               ## xmm0 = mem[0],zero
	vmulsd	-352(%rbp), %xmm0, %xmm0
	vmovsd	-456(%rbp), %xmm1               ## xmm1 = mem[0],zero
	vsubsd	%xmm0, %xmm1, %xmm0
	vmovsd	%xmm0, -456(%rbp)
	vmovsd	-528(%rbp), %xmm0               ## xmm0 = mem[0],zero
	vmulsd	-168(%rbp), %xmm0, %xmm0
	vmovsd	-400(%rbp), %xmm1               ## xmm1 = mem[0],zero
	vsubsd	%xmm0, %xmm1, %xmm0
	vmovsd	%xmm0, -400(%rbp)
	vmovsd	-536(%rbp), %xmm0               ## xmm0 = mem[0],zero
	vmulsd	-168(%rbp), %xmm0, %xmm0
	vmovsd	-408(%rbp), %xmm1               ## xmm1 = mem[0],zero
	vsubsd	%xmm0, %xmm1, %xmm0
	vmovsd	%xmm0, -408(%rbp)
	vmovsd	-528(%rbp), %xmm0               ## xmm0 = mem[0],zero
	vmulsd	-232(%rbp), %xmm0, %xmm0
	vmovsd	-416(%rbp), %xmm1               ## xmm1 = mem[0],zero
	vsubsd	%xmm0, %xmm1, %xmm0
	vmovsd	%xmm0, -416(%rbp)
	vmovsd	-536(%rbp), %xmm0               ## xmm0 = mem[0],zero
	vmulsd	-232(%rbp), %xmm0, %xmm0
	vmovsd	-424(%rbp), %xmm1               ## xmm1 = mem[0],zero
	vsubsd	%xmm0, %xmm1, %xmm0
	vmovsd	%xmm0, -424(%rbp)
	vmovsd	-528(%rbp), %xmm0               ## xmm0 = mem[0],zero
	vmulsd	-296(%rbp), %xmm0, %xmm0
	vmovsd	-432(%rbp), %xmm1               ## xmm1 = mem[0],zero
	vsubsd	%xmm0, %xmm1, %xmm0
	vmovsd	%xmm0, -432(%rbp)
	vmovsd	-536(%rbp), %xmm0               ## xmm0 = mem[0],zero
	vmulsd	-296(%rbp), %xmm0, %xmm0
	vmovsd	-440(%rbp), %xmm1               ## xmm1 = mem[0],zero
	vsubsd	%xmm0, %xmm1, %xmm0
	vmovsd	%xmm0, -440(%rbp)
	vmovsd	-528(%rbp), %xmm0               ## xmm0 = mem[0],zero
	vmulsd	-360(%rbp), %xmm0, %xmm0
	vmovsd	-448(%rbp), %xmm1               ## xmm1 = mem[0],zero
	vsubsd	%xmm0, %xmm1, %xmm0
	vmovsd	%xmm0, -448(%rbp)
	vmovsd	-536(%rbp), %xmm0               ## xmm0 = mem[0],zero
	vmulsd	-360(%rbp), %xmm0, %xmm0
	vmovsd	-456(%rbp), %xmm1               ## xmm1 = mem[0],zero
	vsubsd	%xmm0, %xmm1, %xmm0
	vmovsd	%xmm0, -456(%rbp)
	vmovsd	-544(%rbp), %xmm0               ## xmm0 = mem[0],zero
	vmulsd	-176(%rbp), %xmm0, %xmm0
	vmovsd	-400(%rbp), %xmm1               ## xmm1 = mem[0],zero
	vsubsd	%xmm0, %xmm1, %xmm0
	vmovsd	%xmm0, -400(%rbp)
	vmovsd	-552(%rbp), %xmm0               ## xmm0 = mem[0],zero
	vmulsd	-176(%rbp), %xmm0, %xmm0
	vmovsd	-408(%rbp), %xmm1               ## xmm1 = mem[0],zero
	vsubsd	%xmm0, %xmm1, %xmm0
	vmovsd	%xmm0, -408(%rbp)
	vmovsd	-544(%rbp), %xmm0               ## xmm0 = mem[0],zero
	vmulsd	-240(%rbp), %xmm0, %xmm0
	vmovsd	-416(%rbp), %xmm1               ## xmm1 = mem[0],zero
	vsubsd	%xmm0, %xmm1, %xmm0
	vmovsd	%xmm0, -416(%rbp)
	vmovsd	-552(%rbp), %xmm0               ## xmm0 = mem[0],zero
	vmulsd	-240(%rbp), %xmm0, %xmm0
	vmovsd	-424(%rbp), %xmm1               ## xmm1 = mem[0],zero
	vsubsd	%xmm0, %xmm1, %xmm0
	vmovsd	%xmm0, -424(%rbp)
	vmovsd	-544(%rbp), %xmm0               ## xmm0 = mem[0],zero
	vmulsd	-304(%rbp), %xmm0, %xmm0
	vmovsd	-432(%rbp), %xmm1               ## xmm1 = mem[0],zero
	vsubsd	%xmm0, %xmm1, %xmm0
	vmovsd	%xmm0, -432(%rbp)
	vmovsd	-552(%rbp), %xmm0               ## xmm0 = mem[0],zero
	vmulsd	-304(%rbp), %xmm0, %xmm0
	vmovsd	-440(%rbp), %xmm1               ## xmm1 = mem[0],zero
	vsubsd	%xmm0, %xmm1, %xmm0
	vmovsd	%xmm0, -440(%rbp)
	vmovsd	-544(%rbp), %xmm0               ## xmm0 = mem[0],zero
	vmulsd	-368(%rbp), %xmm0, %xmm0
	vmovsd	-448(%rbp), %xmm1               ## xmm1 = mem[0],zero
	vsubsd	%xmm0, %xmm1, %xmm0
	vmovsd	%xmm0, -448(%rbp)
	vmovsd	-552(%rbp), %xmm0               ## xmm0 = mem[0],zero
	vmulsd	-368(%rbp), %xmm0, %xmm0
	vmovsd	-456(%rbp), %xmm1               ## xmm1 = mem[0],zero
	vsubsd	%xmm0, %xmm1, %xmm0
	vmovsd	%xmm0, -456(%rbp)
	vmovsd	-560(%rbp), %xmm0               ## xmm0 = mem[0],zero
	vmulsd	-184(%rbp), %xmm0, %xmm0
	vmovsd	-400(%rbp), %xmm1               ## xmm1 = mem[0],zero
	vsubsd	%xmm0, %xmm1, %xmm0
	vmovsd	%xmm0, -400(%rbp)
	vmovsd	-568(%rbp), %xmm0               ## xmm0 = mem[0],zero
	vmulsd	-184(%rbp), %xmm0, %xmm0
	vmovsd	-408(%rbp), %xmm1               ## xmm1 = mem[0],zero
	vsubsd	%xmm0, %xmm1, %xmm0
	vmovsd	%xmm0, -408(%rbp)
	vmovsd	-560(%rbp), %xmm0               ## xmm0 = mem[0],zero
	vmulsd	-248(%rbp), %xmm0, %xmm0
	vmovsd	-416(%rbp), %xmm1               ## xmm1 = mem[0],zero
	vsubsd	%xmm0, %xmm1, %xmm0
	vmovsd	%xmm0, -416(%rbp)
	vmovsd	-568(%rbp), %xmm0               ## xmm0 = mem[0],zero
	vmulsd	-248(%rbp), %xmm0, %xmm0
	vmovsd	-424(%rbp), %xmm1               ## xmm1 = mem[0],zero
	vsubsd	%xmm0, %xmm1, %xmm0
	vmovsd	%xmm0, -424(%rbp)
	vmovsd	-560(%rbp), %xmm0               ## xmm0 = mem[0],zero
	vmulsd	-312(%rbp), %xmm0, %xmm0
	vmovsd	-432(%rbp), %xmm1               ## xmm1 = mem[0],zero
	vsubsd	%xmm0, %xmm1, %xmm0
	vmovsd	%xmm0, -432(%rbp)
	vmovsd	-568(%rbp), %xmm0               ## xmm0 = mem[0],zero
	vmulsd	-312(%rbp), %xmm0, %xmm0
	vmovsd	-440(%rbp), %xmm1               ## xmm1 = mem[0],zero
	vsubsd	%xmm0, %xmm1, %xmm0
	vmovsd	%xmm0, -440(%rbp)
	vmovsd	-560(%rbp), %xmm0               ## xmm0 = mem[0],zero
	vmulsd	-376(%rbp), %xmm0, %xmm0
	vmovsd	-448(%rbp), %xmm1               ## xmm1 = mem[0],zero
	vsubsd	%xmm0, %xmm1, %xmm0
	vmovsd	%xmm0, -448(%rbp)
	vmovsd	-568(%rbp), %xmm0               ## xmm0 = mem[0],zero
	vmulsd	-376(%rbp), %xmm0, %xmm0
	vmovsd	-456(%rbp), %xmm1               ## xmm1 = mem[0],zero
	vsubsd	%xmm0, %xmm1, %xmm0
	vmovsd	%xmm0, -456(%rbp)
	vmovsd	-584(%rbp), %xmm0               ## xmm0 = mem[0],zero
	vmulsd	-192(%rbp), %xmm0, %xmm0
	vmovsd	-408(%rbp), %xmm1               ## xmm1 = mem[0],zero
	vsubsd	%xmm0, %xmm1, %xmm0
	vmovsd	%xmm0, -408(%rbp)
	vmovsd	-576(%rbp), %xmm0               ## xmm0 = mem[0],zero
	vmulsd	-192(%rbp), %xmm0, %xmm0
	vmovsd	-400(%rbp), %xmm1               ## xmm1 = mem[0],zero
	vsubsd	%xmm0, %xmm1, %xmm0
	vmovsd	%xmm0, -400(%rbp)
	vmovsd	-584(%rbp), %xmm0               ## xmm0 = mem[0],zero
	vmulsd	-256(%rbp), %xmm0, %xmm0
	vmovsd	-424(%rbp), %xmm1               ## xmm1 = mem[0],zero
	vsubsd	%xmm0, %xmm1, %xmm0
	vmovsd	%xmm0, -424(%rbp)
	vmovsd	-576(%rbp), %xmm0               ## xmm0 = mem[0],zero
	vmulsd	-256(%rbp), %xmm0, %xmm0
	vmovsd	-416(%rbp), %xmm1               ## xmm1 = mem[0],zero
	vsubsd	%xmm0, %xmm1, %xmm0
	vmovsd	%xmm0, -416(%rbp)
	vmovsd	-576(%rbp), %xmm0               ## xmm0 = mem[0],zero
	vmulsd	-320(%rbp), %xmm0, %xmm0
	vmovsd	-432(%rbp), %xmm1               ## xmm1 = mem[0],zero
	vsubsd	%xmm0, %xmm1, %xmm0
	vmovsd	%xmm0, -432(%rbp)
	vmovsd	-584(%rbp), %xmm0               ## xmm0 = mem[0],zero
	vmulsd	-320(%rbp), %xmm0, %xmm0
	vmovsd	-440(%rbp), %xmm1               ## xmm1 = mem[0],zero
	vsubsd	%xmm0, %xmm1, %xmm0
	vmovsd	%xmm0, -440(%rbp)
	vmovsd	-576(%rbp), %xmm0               ## xmm0 = mem[0],zero
	vmulsd	-384(%rbp), %xmm0, %xmm0
	vmovsd	-448(%rbp), %xmm1               ## xmm1 = mem[0],zero
	vsubsd	%xmm0, %xmm1, %xmm0
	vmovsd	%xmm0, -448(%rbp)
	vmovsd	-584(%rbp), %xmm0               ## xmm0 = mem[0],zero
	vmulsd	-384(%rbp), %xmm0, %xmm0
	vmovsd	-456(%rbp), %xmm1               ## xmm1 = mem[0],zero
	vsubsd	%xmm0, %xmm1, %xmm0
	vmovsd	%xmm0, -456(%rbp)
	vmovsd	-400(%rbp), %xmm0               ## xmm0 = mem[0],zero
	movq	24(%rbp), %rax
	movl	32(%rbp), %ecx
	movl	-104(%rbp), %edx
	addl	$0, %edx
	imull	%edx, %ecx
	movl	-108(%rbp), %edx
	addl	$0, %edx
	addl	%edx, %ecx
	movslq	%ecx, %rsi
	vmovsd	%xmm0, (%rax,%rsi,8)
	vmovsd	-408(%rbp), %xmm0               ## xmm0 = mem[0],zero
	movq	24(%rbp), %rax
	movl	32(%rbp), %ecx
	movl	-104(%rbp), %edx
	addl	$0, %edx
	imull	%edx, %ecx
	movl	-108(%rbp), %edx
	addl	$1, %edx
	addl	%edx, %ecx
	movslq	%ecx, %rsi
	vmovsd	%xmm0, (%rax,%rsi,8)
	vmovsd	-416(%rbp), %xmm0               ## xmm0 = mem[0],zero
	movq	24(%rbp), %rax
	movl	32(%rbp), %ecx
	movl	-104(%rbp), %edx
	addl	$1, %edx
	imull	%edx, %ecx
	movl	-108(%rbp), %edx
	addl	$0, %edx
	addl	%edx, %ecx
	movslq	%ecx, %rsi
	vmovsd	%xmm0, (%rax,%rsi,8)
	vmovsd	-424(%rbp), %xmm0               ## xmm0 = mem[0],zero
	movq	24(%rbp), %rax
	movl	32(%rbp), %ecx
	movl	-104(%rbp), %edx
	addl	$1, %edx
	imull	%edx, %ecx
	movl	-108(%rbp), %edx
	addl	$1, %edx
	addl	%edx, %ecx
	movslq	%ecx, %rsi
	vmovsd	%xmm0, (%rax,%rsi,8)
	vmovsd	-432(%rbp), %xmm0               ## xmm0 = mem[0],zero
	movq	24(%rbp), %rax
	movl	32(%rbp), %ecx
	movl	-104(%rbp), %edx
	addl	$2, %edx
	imull	%edx, %ecx
	movl	-108(%rbp), %edx
	addl	$0, %edx
	addl	%edx, %ecx
	movslq	%ecx, %rsi
	vmovsd	%xmm0, (%rax,%rsi,8)
	vmovsd	-440(%rbp), %xmm0               ## xmm0 = mem[0],zero
	movq	24(%rbp), %rax
	movl	32(%rbp), %ecx
	movl	-104(%rbp), %edx
	addl	$2, %edx
	imull	%edx, %ecx
	movl	-108(%rbp), %edx
	addl	$1, %edx
	addl	%edx, %ecx
	movslq	%ecx, %rsi
	vmovsd	%xmm0, (%rax,%rsi,8)
	vmovsd	-448(%rbp), %xmm0               ## xmm0 = mem[0],zero
	movq	24(%rbp), %rax
	movl	32(%rbp), %ecx
	movl	-104(%rbp), %edx
	addl	$3, %edx
	imull	%edx, %ecx
	movl	-108(%rbp), %edx
	addl	$0, %edx
	addl	%edx, %ecx
	movslq	%ecx, %rsi
	vmovsd	%xmm0, (%rax,%rsi,8)
	vmovsd	-456(%rbp), %xmm0               ## xmm0 = mem[0],zero
	movq	24(%rbp), %rax
	movl	32(%rbp), %ecx
	movl	-104(%rbp), %edx
	addl	$3, %edx
	imull	%edx, %ecx
	movl	-108(%rbp), %edx
	addl	$1, %edx
	addl	%edx, %ecx
	movslq	%ecx, %rsi
	vmovsd	%xmm0, (%rax,%rsi,8)
## %bb.19:                              ##   in Loop: Header=BB21_17 Depth=6
	movl	-112(%rbp), %eax
	addl	$8, %eax
	movl	%eax, -112(%rbp)
	jmp	LBB21_17
LBB21_20:                               ##   in Loop: Header=BB21_15 Depth=5
	jmp	LBB21_21
LBB21_21:                               ##   in Loop: Header=BB21_15 Depth=5
	movl	-108(%rbp), %eax
	addl	$2, %eax
	movl	%eax, -108(%rbp)
	jmp	LBB21_15
LBB21_22:                               ##   in Loop: Header=BB21_13 Depth=4
	jmp	LBB21_23
LBB21_23:                               ##   in Loop: Header=BB21_13 Depth=4
	movl	-104(%rbp), %eax
	addl	$4, %eax
	movl	%eax, -104(%rbp)
	jmp	LBB21_13
LBB21_24:                               ##   in Loop: Header=BB21_11 Depth=3
	jmp	LBB21_25
LBB21_25:                               ##   in Loop: Header=BB21_11 Depth=3
	movl	-100(%rbp), %eax
	addl	$56, %eax
	movl	%eax, -100(%rbp)
	jmp	LBB21_11
LBB21_26:                               ##   in Loop: Header=BB21_9 Depth=2
	jmp	LBB21_27
LBB21_27:                               ##   Parent Loop BB21_7 Depth=1
                                        ##     Parent Loop BB21_9 Depth=2
                                        ## =>    This Loop Header: Depth=3
                                        ##         Child Loop BB21_29 Depth 4
                                        ##           Child Loop BB21_31 Depth 5
	movl	-100(%rbp), %eax
	cmpl	-20(%rbp), %eax
	jge	LBB21_38
## %bb.28:                              ##   in Loop: Header=BB21_27 Depth=3
	movl	-92(%rbp), %eax
	movl	%eax, -104(%rbp)
LBB21_29:                               ##   Parent Loop BB21_7 Depth=1
                                        ##     Parent Loop BB21_9 Depth=2
                                        ##       Parent Loop BB21_27 Depth=3
                                        ## =>      This Loop Header: Depth=4
                                        ##           Child Loop BB21_31 Depth 5
	movl	-104(%rbp), %eax
	movl	-92(%rbp), %ecx
	addl	$56, %ecx
	subl	$4, %ecx
	cmpl	%ecx, %eax
	jg	LBB21_36
## %bb.30:                              ##   in Loop: Header=BB21_29 Depth=4
	movl	-96(%rbp), %eax
	movl	%eax, -108(%rbp)
LBB21_31:                               ##   Parent Loop BB21_7 Depth=1
                                        ##     Parent Loop BB21_9 Depth=2
                                        ##       Parent Loop BB21_27 Depth=3
                                        ##         Parent Loop BB21_29 Depth=4
                                        ## =>        This Inner Loop Header: Depth=5
	movl	-108(%rbp), %eax
	movl	-96(%rbp), %ecx
	addl	$56, %ecx
	subl	$2, %ecx
	cmpl	%ecx, %eax
	jg	LBB21_34
## %bb.32:                              ##   in Loop: Header=BB21_31 Depth=5
	movq	24(%rbp), %rax
	movl	32(%rbp), %ecx
	movl	-104(%rbp), %edx
	addl	$0, %edx
	imull	%edx, %ecx
	movl	-108(%rbp), %edx
	addl	$0, %edx
	addl	%edx, %ecx
	movslq	%ecx, %rsi
	vmovsd	(%rax,%rsi,8), %xmm0            ## xmm0 = mem[0],zero
	vmovsd	%xmm0, -400(%rbp)
	movq	24(%rbp), %rax
	movl	32(%rbp), %ecx
	movl	-104(%rbp), %edx
	addl	$0, %edx
	imull	%edx, %ecx
	movl	-108(%rbp), %edx
	addl	$1, %edx
	addl	%edx, %ecx
	movslq	%ecx, %rsi
	vmovsd	(%rax,%rsi,8), %xmm0            ## xmm0 = mem[0],zero
	vmovsd	%xmm0, -408(%rbp)
	movq	24(%rbp), %rax
	movl	32(%rbp), %ecx
	movl	-104(%rbp), %edx
	addl	$1, %edx
	imull	%edx, %ecx
	movl	-108(%rbp), %edx
	addl	$0, %edx
	addl	%edx, %ecx
	movslq	%ecx, %rsi
	vmovsd	(%rax,%rsi,8), %xmm0            ## xmm0 = mem[0],zero
	vmovsd	%xmm0, -416(%rbp)
	movq	24(%rbp), %rax
	movl	32(%rbp), %ecx
	movl	-104(%rbp), %edx
	addl	$1, %edx
	imull	%edx, %ecx
	movl	-108(%rbp), %edx
	addl	$1, %edx
	addl	%edx, %ecx
	movslq	%ecx, %rsi
	vmovsd	(%rax,%rsi,8), %xmm0            ## xmm0 = mem[0],zero
	vmovsd	%xmm0, -424(%rbp)
	movq	24(%rbp), %rax
	movl	32(%rbp), %ecx
	movl	-104(%rbp), %edx
	addl	$2, %edx
	imull	%edx, %ecx
	movl	-108(%rbp), %edx
	addl	$0, %edx
	addl	%edx, %ecx
	movslq	%ecx, %rsi
	vmovsd	(%rax,%rsi,8), %xmm0            ## xmm0 = mem[0],zero
	vmovsd	%xmm0, -432(%rbp)
	movq	24(%rbp), %rax
	movl	32(%rbp), %ecx
	movl	-104(%rbp), %edx
	addl	$2, %edx
	imull	%edx, %ecx
	movl	-108(%rbp), %edx
	addl	$1, %edx
	addl	%edx, %ecx
	movslq	%ecx, %rsi
	vmovsd	(%rax,%rsi,8), %xmm0            ## xmm0 = mem[0],zero
	vmovsd	%xmm0, -440(%rbp)
	movq	24(%rbp), %rax
	movl	32(%rbp), %ecx
	movl	-104(%rbp), %edx
	addl	$3, %edx
	imull	%edx, %ecx
	movl	-108(%rbp), %edx
	addl	$0, %edx
	addl	%edx, %ecx
	movslq	%ecx, %rsi
	vmovsd	(%rax,%rsi,8), %xmm0            ## xmm0 = mem[0],zero
	vmovsd	%xmm0, -448(%rbp)
	movq	24(%rbp), %rax
	movl	32(%rbp), %ecx
	movl	-104(%rbp), %edx
	addl	$3, %edx
	imull	%edx, %ecx
	movl	-108(%rbp), %edx
	addl	$1, %edx
	addl	%edx, %ecx
	movslq	%ecx, %rsi
	vmovsd	(%rax,%rsi,8), %xmm0            ## xmm0 = mem[0],zero
	vmovsd	%xmm0, -456(%rbp)
	movq	-56(%rbp), %rax
	movl	16(%rbp), %ecx
	movl	-100(%rbp), %edx
	addl	$0, %edx
	imull	%edx, %ecx
	movl	-108(%rbp), %edx
	addl	$0, %edx
	addl	%edx, %ecx
	movslq	%ecx, %rsi
	vmovsd	(%rax,%rsi,8), %xmm0            ## xmm0 = mem[0],zero
	vmovsd	%xmm0, -464(%rbp)
	movq	-56(%rbp), %rax
	movl	16(%rbp), %ecx
	movl	-100(%rbp), %edx
	addl	$0, %edx
	imull	%edx, %ecx
	movl	-108(%rbp), %edx
	addl	$1, %edx
	addl	%edx, %ecx
	movslq	%ecx, %rsi
	vmovsd	(%rax,%rsi,8), %xmm0            ## xmm0 = mem[0],zero
	vmovsd	%xmm0, -472(%rbp)
	movq	-40(%rbp), %rax
	movl	-44(%rbp), %ecx
	movl	-104(%rbp), %edx
	addl	$0, %edx
	imull	%edx, %ecx
	movl	-100(%rbp), %edx
	addl	$0, %edx
	addl	%edx, %ecx
	movslq	%ecx, %rsi
	vmovsd	(%rax,%rsi,8), %xmm0            ## xmm0 = mem[0],zero
	vmovsd	%xmm0, -136(%rbp)
	movq	-40(%rbp), %rax
	movl	-44(%rbp), %ecx
	movl	-104(%rbp), %edx
	addl	$1, %edx
	imull	%edx, %ecx
	movl	-100(%rbp), %edx
	addl	$0, %edx
	addl	%edx, %ecx
	movslq	%ecx, %rsi
	vmovsd	(%rax,%rsi,8), %xmm0            ## xmm0 = mem[0],zero
	vmovsd	%xmm0, -200(%rbp)
	movq	-40(%rbp), %rax
	movl	-44(%rbp), %ecx
	movl	-104(%rbp), %edx
	addl	$2, %edx
	imull	%edx, %ecx
	movl	-100(%rbp), %edx
	addl	$0, %edx
	addl	%edx, %ecx
	movslq	%ecx, %rsi
	vmovsd	(%rax,%rsi,8), %xmm0            ## xmm0 = mem[0],zero
	vmovsd	%xmm0, -264(%rbp)
	movq	-40(%rbp), %rax
	movl	-44(%rbp), %ecx
	movl	-104(%rbp), %edx
	addl	$3, %edx
	imull	%edx, %ecx
	movl	-100(%rbp), %edx
	addl	$0, %edx
	addl	%edx, %ecx
	movslq	%ecx, %rsi
	vmovsd	(%rax,%rsi,8), %xmm0            ## xmm0 = mem[0],zero
	vmovsd	%xmm0, -328(%rbp)
	vmovsd	-464(%rbp), %xmm0               ## xmm0 = mem[0],zero
	vmulsd	-136(%rbp), %xmm0, %xmm0
	vmovsd	-400(%rbp), %xmm1               ## xmm1 = mem[0],zero
	vsubsd	%xmm0, %xmm1, %xmm0
	vmovsd	%xmm0, -400(%rbp)
	vmovsd	-472(%rbp), %xmm0               ## xmm0 = mem[0],zero
	vmulsd	-136(%rbp), %xmm0, %xmm0
	vmovsd	-408(%rbp), %xmm1               ## xmm1 = mem[0],zero
	vsubsd	%xmm0, %xmm1, %xmm0
	vmovsd	%xmm0, -408(%rbp)
	vmovsd	-464(%rbp), %xmm0               ## xmm0 = mem[0],zero
	vmulsd	-200(%rbp), %xmm0, %xmm0
	vmovsd	-416(%rbp), %xmm1               ## xmm1 = mem[0],zero
	vsubsd	%xmm0, %xmm1, %xmm0
	vmovsd	%xmm0, -416(%rbp)
	vmovsd	-472(%rbp), %xmm0               ## xmm0 = mem[0],zero
	vmulsd	-200(%rbp), %xmm0, %xmm0
	vmovsd	-424(%rbp), %xmm1               ## xmm1 = mem[0],zero
	vsubsd	%xmm0, %xmm1, %xmm0
	vmovsd	%xmm0, -424(%rbp)
	vmovsd	-464(%rbp), %xmm0               ## xmm0 = mem[0],zero
	vmulsd	-264(%rbp), %xmm0, %xmm0
	vmovsd	-432(%rbp), %xmm1               ## xmm1 = mem[0],zero
	vsubsd	%xmm0, %xmm1, %xmm0
	vmovsd	%xmm0, -432(%rbp)
	vmovsd	-472(%rbp), %xmm0               ## xmm0 = mem[0],zero
	vmulsd	-264(%rbp), %xmm0, %xmm0
	vmovsd	-440(%rbp), %xmm1               ## xmm1 = mem[0],zero
	vsubsd	%xmm0, %xmm1, %xmm0
	vmovsd	%xmm0, -440(%rbp)
	vmovsd	-464(%rbp), %xmm0               ## xmm0 = mem[0],zero
	vmulsd	-328(%rbp), %xmm0, %xmm0
	vmovsd	-448(%rbp), %xmm1               ## xmm1 = mem[0],zero
	vsubsd	%xmm0, %xmm1, %xmm0
	vmovsd	%xmm0, -448(%rbp)
	vmovsd	-472(%rbp), %xmm0               ## xmm0 = mem[0],zero
	vmulsd	-328(%rbp), %xmm0, %xmm0
	vmovsd	-456(%rbp), %xmm1               ## xmm1 = mem[0],zero
	vsubsd	%xmm0, %xmm1, %xmm0
	vmovsd	%xmm0, -456(%rbp)
	vmovsd	-400(%rbp), %xmm0               ## xmm0 = mem[0],zero
	movq	24(%rbp), %rax
	movl	32(%rbp), %ecx
	movl	-104(%rbp), %edx
	addl	$0, %edx
	imull	%edx, %ecx
	movl	-108(%rbp), %edx
	addl	$0, %edx
	addl	%edx, %ecx
	movslq	%ecx, %rsi
	vmovsd	%xmm0, (%rax,%rsi,8)
	vmovsd	-408(%rbp), %xmm0               ## xmm0 = mem[0],zero
	movq	24(%rbp), %rax
	movl	32(%rbp), %ecx
	movl	-104(%rbp), %edx
	addl	$0, %edx
	imull	%edx, %ecx
	movl	-108(%rbp), %edx
	addl	$1, %edx
	addl	%edx, %ecx
	movslq	%ecx, %rsi
	vmovsd	%xmm0, (%rax,%rsi,8)
	vmovsd	-416(%rbp), %xmm0               ## xmm0 = mem[0],zero
	movq	24(%rbp), %rax
	movl	32(%rbp), %ecx
	movl	-104(%rbp), %edx
	addl	$1, %edx
	imull	%edx, %ecx
	movl	-108(%rbp), %edx
	addl	$0, %edx
	addl	%edx, %ecx
	movslq	%ecx, %rsi
	vmovsd	%xmm0, (%rax,%rsi,8)
	vmovsd	-424(%rbp), %xmm0               ## xmm0 = mem[0],zero
	movq	24(%rbp), %rax
	movl	32(%rbp), %ecx
	movl	-104(%rbp), %edx
	addl	$1, %edx
	imull	%edx, %ecx
	movl	-108(%rbp), %edx
	addl	$1, %edx
	addl	%edx, %ecx
	movslq	%ecx, %rsi
	vmovsd	%xmm0, (%rax,%rsi,8)
	vmovsd	-432(%rbp), %xmm0               ## xmm0 = mem[0],zero
	movq	24(%rbp), %rax
	movl	32(%rbp), %ecx
	movl	-104(%rbp), %edx
	addl	$2, %edx
	imull	%edx, %ecx
	movl	-108(%rbp), %edx
	addl	$0, %edx
	addl	%edx, %ecx
	movslq	%ecx, %rsi
	vmovsd	%xmm0, (%rax,%rsi,8)
	vmovsd	-440(%rbp), %xmm0               ## xmm0 = mem[0],zero
	movq	24(%rbp), %rax
	movl	32(%rbp), %ecx
	movl	-104(%rbp), %edx
	addl	$2, %edx
	imull	%edx, %ecx
	movl	-108(%rbp), %edx
	addl	$1, %edx
	addl	%edx, %ecx
	movslq	%ecx, %rsi
	vmovsd	%xmm0, (%rax,%rsi,8)
	vmovsd	-448(%rbp), %xmm0               ## xmm0 = mem[0],zero
	movq	24(%rbp), %rax
	movl	32(%rbp), %ecx
	movl	-104(%rbp), %edx
	addl	$3, %edx
	imull	%edx, %ecx
	movl	-108(%rbp), %edx
	addl	$0, %edx
	addl	%edx, %ecx
	movslq	%ecx, %rsi
	vmovsd	%xmm0, (%rax,%rsi,8)
	vmovsd	-456(%rbp), %xmm0               ## xmm0 = mem[0],zero
	movq	24(%rbp), %rax
	movl	32(%rbp), %ecx
	movl	-104(%rbp), %edx
	addl	$3, %edx
	imull	%edx, %ecx
	movl	-108(%rbp), %edx
	addl	$1, %edx
	addl	%edx, %ecx
	movslq	%ecx, %rsi
	vmovsd	%xmm0, (%rax,%rsi,8)
## %bb.33:                              ##   in Loop: Header=BB21_31 Depth=5
	movl	-108(%rbp), %eax
	addl	$2, %eax
	movl	%eax, -108(%rbp)
	jmp	LBB21_31
LBB21_34:                               ##   in Loop: Header=BB21_29 Depth=4
	jmp	LBB21_35
LBB21_35:                               ##   in Loop: Header=BB21_29 Depth=4
	movl	-104(%rbp), %eax
	addl	$4, %eax
	movl	%eax, -104(%rbp)
	jmp	LBB21_29
LBB21_36:                               ##   in Loop: Header=BB21_27 Depth=3
	jmp	LBB21_37
LBB21_37:                               ##   in Loop: Header=BB21_27 Depth=3
	movl	-100(%rbp), %eax
	addl	$1, %eax
	movl	%eax, -100(%rbp)
	jmp	LBB21_27
LBB21_38:                               ##   in Loop: Header=BB21_9 Depth=2
	jmp	LBB21_39
LBB21_39:                               ##   in Loop: Header=BB21_9 Depth=2
	movl	-96(%rbp), %eax
	addl	$56, %eax
	movl	%eax, -96(%rbp)
	jmp	LBB21_9
LBB21_40:                               ##   in Loop: Header=BB21_7 Depth=1
	jmp	LBB21_41
LBB21_41:                               ##   Parent Loop BB21_7 Depth=1
                                        ## =>  This Loop Header: Depth=2
                                        ##       Child Loop BB21_43 Depth 3
                                        ##         Child Loop BB21_45 Depth 4
                                        ##           Child Loop BB21_47 Depth 5
                                        ##       Child Loop BB21_55 Depth 3
                                        ##         Child Loop BB21_57 Depth 4
	movl	-96(%rbp), %eax
	cmpl	-16(%rbp), %eax
	jge	LBB21_64
## %bb.42:                              ##   in Loop: Header=BB21_41 Depth=2
	movl	$0, -100(%rbp)
LBB21_43:                               ##   Parent Loop BB21_7 Depth=1
                                        ##     Parent Loop BB21_41 Depth=2
                                        ## =>    This Loop Header: Depth=3
                                        ##         Child Loop BB21_45 Depth 4
                                        ##           Child Loop BB21_47 Depth 5
	movl	-100(%rbp), %eax
	movl	-20(%rbp), %ecx
	subl	$56, %ecx
	cmpl	%ecx, %eax
	jg	LBB21_54
## %bb.44:                              ##   in Loop: Header=BB21_43 Depth=3
	movl	-92(%rbp), %eax
	movl	%eax, -104(%rbp)
LBB21_45:                               ##   Parent Loop BB21_7 Depth=1
                                        ##     Parent Loop BB21_41 Depth=2
                                        ##       Parent Loop BB21_43 Depth=3
                                        ## =>      This Loop Header: Depth=4
                                        ##           Child Loop BB21_47 Depth 5
	movl	-104(%rbp), %eax
	movl	-92(%rbp), %ecx
	addl	$56, %ecx
	subl	$4, %ecx
	cmpl	%ecx, %eax
	jg	LBB21_52
## %bb.46:                              ##   in Loop: Header=BB21_45 Depth=4
	movl	-100(%rbp), %eax
	movl	%eax, -112(%rbp)
LBB21_47:                               ##   Parent Loop BB21_7 Depth=1
                                        ##     Parent Loop BB21_41 Depth=2
                                        ##       Parent Loop BB21_43 Depth=3
                                        ##         Parent Loop BB21_45 Depth=4
                                        ## =>        This Inner Loop Header: Depth=5
	movl	-112(%rbp), %eax
	movl	-100(%rbp), %ecx
	addl	$56, %ecx
	subl	$8, %ecx
	cmpl	%ecx, %eax
	jg	LBB21_50
## %bb.48:                              ##   in Loop: Header=BB21_47 Depth=5
	movq	24(%rbp), %rax
	movl	32(%rbp), %ecx
	movl	-104(%rbp), %edx
	addl	$0, %edx
	imull	%edx, %ecx
	movl	-96(%rbp), %edx
	addl	$0, %edx
	addl	%edx, %ecx
	movslq	%ecx, %rsi
	vmovsd	(%rax,%rsi,8), %xmm0            ## xmm0 = mem[0],zero
	vmovsd	%xmm0, -400(%rbp)
	movq	24(%rbp), %rax
	movl	32(%rbp), %ecx
	movl	-104(%rbp), %edx
	addl	$1, %edx
	imull	%edx, %ecx
	movl	-96(%rbp), %edx
	addl	$0, %edx
	addl	%edx, %ecx
	movslq	%ecx, %rsi
	vmovsd	(%rax,%rsi,8), %xmm0            ## xmm0 = mem[0],zero
	vmovsd	%xmm0, -416(%rbp)
	movq	24(%rbp), %rax
	movl	32(%rbp), %ecx
	movl	-104(%rbp), %edx
	addl	$2, %edx
	imull	%edx, %ecx
	movl	-96(%rbp), %edx
	addl	$0, %edx
	addl	%edx, %ecx
	movslq	%ecx, %rsi
	vmovsd	(%rax,%rsi,8), %xmm0            ## xmm0 = mem[0],zero
	vmovsd	%xmm0, -432(%rbp)
	movq	24(%rbp), %rax
	movl	32(%rbp), %ecx
	movl	-104(%rbp), %edx
	addl	$3, %edx
	imull	%edx, %ecx
	movl	-96(%rbp), %edx
	addl	$0, %edx
	addl	%edx, %ecx
	movslq	%ecx, %rsi
	vmovsd	(%rax,%rsi,8), %xmm0            ## xmm0 = mem[0],zero
	vmovsd	%xmm0, -448(%rbp)
	movq	-56(%rbp), %rax
	movl	16(%rbp), %ecx
	movl	-112(%rbp), %edx
	addl	$0, %edx
	imull	%edx, %ecx
	movl	-96(%rbp), %edx
	addl	$0, %edx
	addl	%edx, %ecx
	movslq	%ecx, %rsi
	vmovsd	(%rax,%rsi,8), %xmm0            ## xmm0 = mem[0],zero
	vmovsd	%xmm0, -464(%rbp)
	movq	-56(%rbp), %rax
	movl	16(%rbp), %ecx
	movl	-112(%rbp), %edx
	addl	$1, %edx
	imull	%edx, %ecx
	movl	-96(%rbp), %edx
	addl	$0, %edx
	addl	%edx, %ecx
	movslq	%ecx, %rsi
	vmovsd	(%rax,%rsi,8), %xmm0            ## xmm0 = mem[0],zero
	vmovsd	%xmm0, -480(%rbp)
	movq	-56(%rbp), %rax
	movl	16(%rbp), %ecx
	movl	-112(%rbp), %edx
	addl	$2, %edx
	imull	%edx, %ecx
	movl	-96(%rbp), %edx
	addl	$0, %edx
	addl	%edx, %ecx
	movslq	%ecx, %rsi
	vmovsd	(%rax,%rsi,8), %xmm0            ## xmm0 = mem[0],zero
	vmovsd	%xmm0, -496(%rbp)
	movq	-56(%rbp), %rax
	movl	16(%rbp), %ecx
	movl	-112(%rbp), %edx
	addl	$3, %edx
	imull	%edx, %ecx
	movl	-96(%rbp), %edx
	addl	$0, %edx
	addl	%edx, %ecx
	movslq	%ecx, %rsi
	vmovsd	(%rax,%rsi,8), %xmm0            ## xmm0 = mem[0],zero
	vmovsd	%xmm0, -512(%rbp)
	movq	-56(%rbp), %rax
	movl	16(%rbp), %ecx
	movl	-112(%rbp), %edx
	addl	$4, %edx
	imull	%edx, %ecx
	movl	-96(%rbp), %edx
	addl	$0, %edx
	addl	%edx, %ecx
	movslq	%ecx, %rsi
	vmovsd	(%rax,%rsi,8), %xmm0            ## xmm0 = mem[0],zero
	vmovsd	%xmm0, -528(%rbp)
	movq	-56(%rbp), %rax
	movl	16(%rbp), %ecx
	movl	-112(%rbp), %edx
	addl	$5, %edx
	imull	%edx, %ecx
	movl	-96(%rbp), %edx
	addl	$0, %edx
	addl	%edx, %ecx
	movslq	%ecx, %rsi
	vmovsd	(%rax,%rsi,8), %xmm0            ## xmm0 = mem[0],zero
	vmovsd	%xmm0, -544(%rbp)
	movq	-56(%rbp), %rax
	movl	16(%rbp), %ecx
	movl	-112(%rbp), %edx
	addl	$6, %edx
	imull	%edx, %ecx
	movl	-96(%rbp), %edx
	addl	$0, %edx
	addl	%edx, %ecx
	movslq	%ecx, %rsi
	vmovsd	(%rax,%rsi,8), %xmm0            ## xmm0 = mem[0],zero
	vmovsd	%xmm0, -560(%rbp)
	movq	-56(%rbp), %rax
	movl	16(%rbp), %ecx
	movl	-112(%rbp), %edx
	addl	$7, %edx
	imull	%edx, %ecx
	movl	-96(%rbp), %edx
	addl	$0, %edx
	addl	%edx, %ecx
	movslq	%ecx, %rsi
	vmovsd	(%rax,%rsi,8), %xmm0            ## xmm0 = mem[0],zero
	vmovsd	%xmm0, -576(%rbp)
	movq	-40(%rbp), %rax
	movl	-44(%rbp), %ecx
	movl	-104(%rbp), %edx
	addl	$0, %edx
	imull	%edx, %ecx
	movl	-112(%rbp), %edx
	addl	$0, %edx
	addl	%edx, %ecx
	movslq	%ecx, %rsi
	vmovsd	(%rax,%rsi,8), %xmm0            ## xmm0 = mem[0],zero
	vmovsd	%xmm0, -136(%rbp)
	movq	-40(%rbp), %rax
	movl	-44(%rbp), %ecx
	movl	-104(%rbp), %edx
	addl	$0, %edx
	imull	%edx, %ecx
	movl	-112(%rbp), %edx
	addl	$1, %edx
	addl	%edx, %ecx
	movslq	%ecx, %rsi
	vmovsd	(%rax,%rsi,8), %xmm0            ## xmm0 = mem[0],zero
	vmovsd	%xmm0, -144(%rbp)
	movq	-40(%rbp), %rax
	movl	-44(%rbp), %ecx
	movl	-104(%rbp), %edx
	addl	$0, %edx
	imull	%edx, %ecx
	movl	-112(%rbp), %edx
	addl	$2, %edx
	addl	%edx, %ecx
	movslq	%ecx, %rsi
	vmovsd	(%rax,%rsi,8), %xmm0            ## xmm0 = mem[0],zero
	vmovsd	%xmm0, -152(%rbp)
	movq	-40(%rbp), %rax
	movl	-44(%rbp), %ecx
	movl	-104(%rbp), %edx
	addl	$0, %edx
	imull	%edx, %ecx
	movl	-112(%rbp), %edx
	addl	$3, %edx
	addl	%edx, %ecx
	movslq	%ecx, %rsi
	vmovsd	(%rax,%rsi,8), %xmm0            ## xmm0 = mem[0],zero
	vmovsd	%xmm0, -160(%rbp)
	movq	-40(%rbp), %rax
	movl	-44(%rbp), %ecx
	movl	-104(%rbp), %edx
	addl	$0, %edx
	imull	%edx, %ecx
	movl	-112(%rbp), %edx
	addl	$4, %edx
	addl	%edx, %ecx
	movslq	%ecx, %rsi
	vmovsd	(%rax,%rsi,8), %xmm0            ## xmm0 = mem[0],zero
	vmovsd	%xmm0, -168(%rbp)
	movq	-40(%rbp), %rax
	movl	-44(%rbp), %ecx
	movl	-104(%rbp), %edx
	addl	$0, %edx
	imull	%edx, %ecx
	movl	-112(%rbp), %edx
	addl	$5, %edx
	addl	%edx, %ecx
	movslq	%ecx, %rsi
	vmovsd	(%rax,%rsi,8), %xmm0            ## xmm0 = mem[0],zero
	vmovsd	%xmm0, -176(%rbp)
	movq	-40(%rbp), %rax
	movl	-44(%rbp), %ecx
	movl	-104(%rbp), %edx
	addl	$0, %edx
	imull	%edx, %ecx
	movl	-112(%rbp), %edx
	addl	$6, %edx
	addl	%edx, %ecx
	movslq	%ecx, %rsi
	vmovsd	(%rax,%rsi,8), %xmm0            ## xmm0 = mem[0],zero
	vmovsd	%xmm0, -184(%rbp)
	movq	-40(%rbp), %rax
	movl	-44(%rbp), %ecx
	movl	-104(%rbp), %edx
	addl	$0, %edx
	imull	%edx, %ecx
	movl	-112(%rbp), %edx
	addl	$7, %edx
	addl	%edx, %ecx
	movslq	%ecx, %rsi
	vmovsd	(%rax,%rsi,8), %xmm0            ## xmm0 = mem[0],zero
	vmovsd	%xmm0, -192(%rbp)
	movq	-40(%rbp), %rax
	movl	-44(%rbp), %ecx
	movl	-104(%rbp), %edx
	addl	$1, %edx
	imull	%edx, %ecx
	movl	-112(%rbp), %edx
	addl	$0, %edx
	addl	%edx, %ecx
	movslq	%ecx, %rsi
	vmovsd	(%rax,%rsi,8), %xmm0            ## xmm0 = mem[0],zero
	vmovsd	%xmm0, -200(%rbp)
	movq	-40(%rbp), %rax
	movl	-44(%rbp), %ecx
	movl	-104(%rbp), %edx
	addl	$1, %edx
	imull	%edx, %ecx
	movl	-112(%rbp), %edx
	addl	$1, %edx
	addl	%edx, %ecx
	movslq	%ecx, %rsi
	vmovsd	(%rax,%rsi,8), %xmm0            ## xmm0 = mem[0],zero
	vmovsd	%xmm0, -208(%rbp)
	movq	-40(%rbp), %rax
	movl	-44(%rbp), %ecx
	movl	-104(%rbp), %edx
	addl	$1, %edx
	imull	%edx, %ecx
	movl	-112(%rbp), %edx
	addl	$2, %edx
	addl	%edx, %ecx
	movslq	%ecx, %rsi
	vmovsd	(%rax,%rsi,8), %xmm0            ## xmm0 = mem[0],zero
	vmovsd	%xmm0, -216(%rbp)
	movq	-40(%rbp), %rax
	movl	-44(%rbp), %ecx
	movl	-104(%rbp), %edx
	addl	$1, %edx
	imull	%edx, %ecx
	movl	-112(%rbp), %edx
	addl	$3, %edx
	addl	%edx, %ecx
	movslq	%ecx, %rsi
	vmovsd	(%rax,%rsi,8), %xmm0            ## xmm0 = mem[0],zero
	vmovsd	%xmm0, -224(%rbp)
	movq	-40(%rbp), %rax
	movl	-44(%rbp), %ecx
	movl	-104(%rbp), %edx
	addl	$1, %edx
	imull	%edx, %ecx
	movl	-112(%rbp), %edx
	addl	$4, %edx
	addl	%edx, %ecx
	movslq	%ecx, %rsi
	vmovsd	(%rax,%rsi,8), %xmm0            ## xmm0 = mem[0],zero
	vmovsd	%xmm0, -232(%rbp)
	movq	-40(%rbp), %rax
	movl	-44(%rbp), %ecx
	movl	-104(%rbp), %edx
	addl	$1, %edx
	imull	%edx, %ecx
	movl	-112(%rbp), %edx
	addl	$5, %edx
	addl	%edx, %ecx
	movslq	%ecx, %rsi
	vmovsd	(%rax,%rsi,8), %xmm0            ## xmm0 = mem[0],zero
	vmovsd	%xmm0, -240(%rbp)
	movq	-40(%rbp), %rax
	movl	-44(%rbp), %ecx
	movl	-104(%rbp), %edx
	addl	$1, %edx
	imull	%edx, %ecx
	movl	-112(%rbp), %edx
	addl	$6, %edx
	addl	%edx, %ecx
	movslq	%ecx, %rsi
	vmovsd	(%rax,%rsi,8), %xmm0            ## xmm0 = mem[0],zero
	vmovsd	%xmm0, -248(%rbp)
	movq	-40(%rbp), %rax
	movl	-44(%rbp), %ecx
	movl	-104(%rbp), %edx
	addl	$1, %edx
	imull	%edx, %ecx
	movl	-112(%rbp), %edx
	addl	$7, %edx
	addl	%edx, %ecx
	movslq	%ecx, %rsi
	vmovsd	(%rax,%rsi,8), %xmm0            ## xmm0 = mem[0],zero
	vmovsd	%xmm0, -256(%rbp)
	movq	-40(%rbp), %rax
	movl	-44(%rbp), %ecx
	movl	-104(%rbp), %edx
	addl	$2, %edx
	imull	%edx, %ecx
	movl	-112(%rbp), %edx
	addl	$0, %edx
	addl	%edx, %ecx
	movslq	%ecx, %rsi
	vmovsd	(%rax,%rsi,8), %xmm0            ## xmm0 = mem[0],zero
	vmovsd	%xmm0, -264(%rbp)
	movq	-40(%rbp), %rax
	movl	-44(%rbp), %ecx
	movl	-104(%rbp), %edx
	addl	$2, %edx
	imull	%edx, %ecx
	movl	-112(%rbp), %edx
	addl	$1, %edx
	addl	%edx, %ecx
	movslq	%ecx, %rsi
	vmovsd	(%rax,%rsi,8), %xmm0            ## xmm0 = mem[0],zero
	vmovsd	%xmm0, -272(%rbp)
	movq	-40(%rbp), %rax
	movl	-44(%rbp), %ecx
	movl	-104(%rbp), %edx
	addl	$2, %edx
	imull	%edx, %ecx
	movl	-112(%rbp), %edx
	addl	$2, %edx
	addl	%edx, %ecx
	movslq	%ecx, %rsi
	vmovsd	(%rax,%rsi,8), %xmm0            ## xmm0 = mem[0],zero
	vmovsd	%xmm0, -280(%rbp)
	movq	-40(%rbp), %rax
	movl	-44(%rbp), %ecx
	movl	-104(%rbp), %edx
	addl	$2, %edx
	imull	%edx, %ecx
	movl	-112(%rbp), %edx
	addl	$3, %edx
	addl	%edx, %ecx
	movslq	%ecx, %rsi
	vmovsd	(%rax,%rsi,8), %xmm0            ## xmm0 = mem[0],zero
	vmovsd	%xmm0, -288(%rbp)
	movq	-40(%rbp), %rax
	movl	-44(%rbp), %ecx
	movl	-104(%rbp), %edx
	addl	$2, %edx
	imull	%edx, %ecx
	movl	-112(%rbp), %edx
	addl	$4, %edx
	addl	%edx, %ecx
	movslq	%ecx, %rsi
	vmovsd	(%rax,%rsi,8), %xmm0            ## xmm0 = mem[0],zero
	vmovsd	%xmm0, -296(%rbp)
	movq	-40(%rbp), %rax
	movl	-44(%rbp), %ecx
	movl	-104(%rbp), %edx
	addl	$2, %edx
	imull	%edx, %ecx
	movl	-112(%rbp), %edx
	addl	$5, %edx
	addl	%edx, %ecx
	movslq	%ecx, %rsi
	vmovsd	(%rax,%rsi,8), %xmm0            ## xmm0 = mem[0],zero
	vmovsd	%xmm0, -304(%rbp)
	movq	-40(%rbp), %rax
	movl	-44(%rbp), %ecx
	movl	-104(%rbp), %edx
	addl	$2, %edx
	imull	%edx, %ecx
	movl	-112(%rbp), %edx
	addl	$6, %edx
	addl	%edx, %ecx
	movslq	%ecx, %rsi
	vmovsd	(%rax,%rsi,8), %xmm0            ## xmm0 = mem[0],zero
	vmovsd	%xmm0, -312(%rbp)
	movq	-40(%rbp), %rax
	movl	-44(%rbp), %ecx
	movl	-104(%rbp), %edx
	addl	$2, %edx
	imull	%edx, %ecx
	movl	-112(%rbp), %edx
	addl	$7, %edx
	addl	%edx, %ecx
	movslq	%ecx, %rsi
	vmovsd	(%rax,%rsi,8), %xmm0            ## xmm0 = mem[0],zero
	vmovsd	%xmm0, -320(%rbp)
	movq	-40(%rbp), %rax
	movl	-44(%rbp), %ecx
	movl	-104(%rbp), %edx
	addl	$3, %edx
	imull	%edx, %ecx
	movl	-112(%rbp), %edx
	addl	$0, %edx
	addl	%edx, %ecx
	movslq	%ecx, %rsi
	vmovsd	(%rax,%rsi,8), %xmm0            ## xmm0 = mem[0],zero
	vmovsd	%xmm0, -328(%rbp)
	movq	-40(%rbp), %rax
	movl	-44(%rbp), %ecx
	movl	-104(%rbp), %edx
	addl	$3, %edx
	imull	%edx, %ecx
	movl	-112(%rbp), %edx
	addl	$1, %edx
	addl	%edx, %ecx
	movslq	%ecx, %rsi
	vmovsd	(%rax,%rsi,8), %xmm0            ## xmm0 = mem[0],zero
	vmovsd	%xmm0, -336(%rbp)
	movq	-40(%rbp), %rax
	movl	-44(%rbp), %ecx
	movl	-104(%rbp), %edx
	addl	$3, %edx
	imull	%edx, %ecx
	movl	-112(%rbp), %edx
	addl	$2, %edx
	addl	%edx, %ecx
	movslq	%ecx, %rsi
	vmovsd	(%rax,%rsi,8), %xmm0            ## xmm0 = mem[0],zero
	vmovsd	%xmm0, -344(%rbp)
	movq	-40(%rbp), %rax
	movl	-44(%rbp), %ecx
	movl	-104(%rbp), %edx
	addl	$3, %edx
	imull	%edx, %ecx
	movl	-112(%rbp), %edx
	addl	$3, %edx
	addl	%edx, %ecx
	movslq	%ecx, %rsi
	vmovsd	(%rax,%rsi,8), %xmm0            ## xmm0 = mem[0],zero
	vmovsd	%xmm0, -352(%rbp)
	movq	-40(%rbp), %rax
	movl	-44(%rbp), %ecx
	movl	-104(%rbp), %edx
	addl	$3, %edx
	imull	%edx, %ecx
	movl	-112(%rbp), %edx
	addl	$4, %edx
	addl	%edx, %ecx
	movslq	%ecx, %rsi
	vmovsd	(%rax,%rsi,8), %xmm0            ## xmm0 = mem[0],zero
	vmovsd	%xmm0, -360(%rbp)
	movq	-40(%rbp), %rax
	movl	-44(%rbp), %ecx
	movl	-104(%rbp), %edx
	addl	$3, %edx
	imull	%edx, %ecx
	movl	-112(%rbp), %edx
	addl	$5, %edx
	addl	%edx, %ecx
	movslq	%ecx, %rsi
	vmovsd	(%rax,%rsi,8), %xmm0            ## xmm0 = mem[0],zero
	vmovsd	%xmm0, -368(%rbp)
	movq	-40(%rbp), %rax
	movl	-44(%rbp), %ecx
	movl	-104(%rbp), %edx
	addl	$3, %edx
	imull	%edx, %ecx
	movl	-112(%rbp), %edx
	addl	$6, %edx
	addl	%edx, %ecx
	movslq	%ecx, %rsi
	vmovsd	(%rax,%rsi,8), %xmm0            ## xmm0 = mem[0],zero
	vmovsd	%xmm0, -376(%rbp)
	movq	-40(%rbp), %rax
	movl	-44(%rbp), %ecx
	movl	-104(%rbp), %edx
	addl	$3, %edx
	imull	%edx, %ecx
	movl	-112(%rbp), %edx
	addl	$7, %edx
	addl	%edx, %ecx
	movslq	%ecx, %rsi
	vmovsd	(%rax,%rsi,8), %xmm0            ## xmm0 = mem[0],zero
	vmovsd	%xmm0, -384(%rbp)
	movq	-40(%rbp), %rax
	movl	-44(%rbp), %ecx
	movl	-104(%rbp), %edx
	addl	$3, %edx
	imull	%edx, %ecx
	movl	-112(%rbp), %edx
	addl	$8, %edx
	addl	%edx, %ecx
	movslq	%ecx, %rsi
	vmovsd	(%rax,%rsi,8), %xmm0            ## xmm0 = mem[0],zero
	vmovsd	%xmm0, -392(%rbp)
	vmovsd	-464(%rbp), %xmm0               ## xmm0 = mem[0],zero
	vmulsd	-136(%rbp), %xmm0, %xmm0
	vmovsd	-400(%rbp), %xmm1               ## xmm1 = mem[0],zero
	vsubsd	%xmm0, %xmm1, %xmm0
	vmovsd	%xmm0, -400(%rbp)
	vmovsd	-464(%rbp), %xmm0               ## xmm0 = mem[0],zero
	vmulsd	-200(%rbp), %xmm0, %xmm0
	vmovsd	-416(%rbp), %xmm1               ## xmm1 = mem[0],zero
	vsubsd	%xmm0, %xmm1, %xmm0
	vmovsd	%xmm0, -416(%rbp)
	vmovsd	-464(%rbp), %xmm0               ## xmm0 = mem[0],zero
	vmulsd	-264(%rbp), %xmm0, %xmm0
	vmovsd	-432(%rbp), %xmm1               ## xmm1 = mem[0],zero
	vsubsd	%xmm0, %xmm1, %xmm0
	vmovsd	%xmm0, -432(%rbp)
	vmovsd	-464(%rbp), %xmm0               ## xmm0 = mem[0],zero
	vmulsd	-328(%rbp), %xmm0, %xmm0
	vmovsd	-448(%rbp), %xmm1               ## xmm1 = mem[0],zero
	vsubsd	%xmm0, %xmm1, %xmm0
	vmovsd	%xmm0, -448(%rbp)
	vmovsd	-480(%rbp), %xmm0               ## xmm0 = mem[0],zero
	vmulsd	-144(%rbp), %xmm0, %xmm0
	vmovsd	-400(%rbp), %xmm1               ## xmm1 = mem[0],zero
	vsubsd	%xmm0, %xmm1, %xmm0
	vmovsd	%xmm0, -400(%rbp)
	vmovsd	-480(%rbp), %xmm0               ## xmm0 = mem[0],zero
	vmulsd	-208(%rbp), %xmm0, %xmm0
	vmovsd	-416(%rbp), %xmm1               ## xmm1 = mem[0],zero
	vsubsd	%xmm0, %xmm1, %xmm0
	vmovsd	%xmm0, -416(%rbp)
	vmovsd	-480(%rbp), %xmm0               ## xmm0 = mem[0],zero
	vmulsd	-272(%rbp), %xmm0, %xmm0
	vmovsd	-432(%rbp), %xmm1               ## xmm1 = mem[0],zero
	vsubsd	%xmm0, %xmm1, %xmm0
	vmovsd	%xmm0, -432(%rbp)
	vmovsd	-480(%rbp), %xmm0               ## xmm0 = mem[0],zero
	vmulsd	-336(%rbp), %xmm0, %xmm0
	vmovsd	-448(%rbp), %xmm1               ## xmm1 = mem[0],zero
	vsubsd	%xmm0, %xmm1, %xmm0
	vmovsd	%xmm0, -448(%rbp)
	vmovsd	-496(%rbp), %xmm0               ## xmm0 = mem[0],zero
	vmulsd	-152(%rbp), %xmm0, %xmm0
	vmovsd	-400(%rbp), %xmm1               ## xmm1 = mem[0],zero
	vsubsd	%xmm0, %xmm1, %xmm0
	vmovsd	%xmm0, -400(%rbp)
	vmovsd	-496(%rbp), %xmm0               ## xmm0 = mem[0],zero
	vmulsd	-216(%rbp), %xmm0, %xmm0
	vmovsd	-416(%rbp), %xmm1               ## xmm1 = mem[0],zero
	vsubsd	%xmm0, %xmm1, %xmm0
	vmovsd	%xmm0, -416(%rbp)
	vmovsd	-496(%rbp), %xmm0               ## xmm0 = mem[0],zero
	vmulsd	-280(%rbp), %xmm0, %xmm0
	vmovsd	-432(%rbp), %xmm1               ## xmm1 = mem[0],zero
	vsubsd	%xmm0, %xmm1, %xmm0
	vmovsd	%xmm0, -432(%rbp)
	vmovsd	-496(%rbp), %xmm0               ## xmm0 = mem[0],zero
	vmulsd	-344(%rbp), %xmm0, %xmm0
	vmovsd	-448(%rbp), %xmm1               ## xmm1 = mem[0],zero
	vsubsd	%xmm0, %xmm1, %xmm0
	vmovsd	%xmm0, -448(%rbp)
	vmovsd	-512(%rbp), %xmm0               ## xmm0 = mem[0],zero
	vmulsd	-160(%rbp), %xmm0, %xmm0
	vmovsd	-400(%rbp), %xmm1               ## xmm1 = mem[0],zero
	vsubsd	%xmm0, %xmm1, %xmm0
	vmovsd	%xmm0, -400(%rbp)
	vmovsd	-512(%rbp), %xmm0               ## xmm0 = mem[0],zero
	vmulsd	-224(%rbp), %xmm0, %xmm0
	vmovsd	-416(%rbp), %xmm1               ## xmm1 = mem[0],zero
	vsubsd	%xmm0, %xmm1, %xmm0
	vmovsd	%xmm0, -416(%rbp)
	vmovsd	-512(%rbp), %xmm0               ## xmm0 = mem[0],zero
	vmulsd	-288(%rbp), %xmm0, %xmm0
	vmovsd	-432(%rbp), %xmm1               ## xmm1 = mem[0],zero
	vsubsd	%xmm0, %xmm1, %xmm0
	vmovsd	%xmm0, -432(%rbp)
	vmovsd	-512(%rbp), %xmm0               ## xmm0 = mem[0],zero
	vmulsd	-352(%rbp), %xmm0, %xmm0
	vmovsd	-448(%rbp), %xmm1               ## xmm1 = mem[0],zero
	vsubsd	%xmm0, %xmm1, %xmm0
	vmovsd	%xmm0, -448(%rbp)
	vmovsd	-528(%rbp), %xmm0               ## xmm0 = mem[0],zero
	vmulsd	-168(%rbp), %xmm0, %xmm0
	vmovsd	-400(%rbp), %xmm1               ## xmm1 = mem[0],zero
	vsubsd	%xmm0, %xmm1, %xmm0
	vmovsd	%xmm0, -400(%rbp)
	vmovsd	-528(%rbp), %xmm0               ## xmm0 = mem[0],zero
	vmulsd	-232(%rbp), %xmm0, %xmm0
	vmovsd	-416(%rbp), %xmm1               ## xmm1 = mem[0],zero
	vsubsd	%xmm0, %xmm1, %xmm0
	vmovsd	%xmm0, -416(%rbp)
	vmovsd	-528(%rbp), %xmm0               ## xmm0 = mem[0],zero
	vmulsd	-296(%rbp), %xmm0, %xmm0
	vmovsd	-432(%rbp), %xmm1               ## xmm1 = mem[0],zero
	vsubsd	%xmm0, %xmm1, %xmm0
	vmovsd	%xmm0, -432(%rbp)
	vmovsd	-528(%rbp), %xmm0               ## xmm0 = mem[0],zero
	vmulsd	-360(%rbp), %xmm0, %xmm0
	vmovsd	-448(%rbp), %xmm1               ## xmm1 = mem[0],zero
	vsubsd	%xmm0, %xmm1, %xmm0
	vmovsd	%xmm0, -448(%rbp)
	vmovsd	-544(%rbp), %xmm0               ## xmm0 = mem[0],zero
	vmulsd	-176(%rbp), %xmm0, %xmm0
	vmovsd	-400(%rbp), %xmm1               ## xmm1 = mem[0],zero
	vsubsd	%xmm0, %xmm1, %xmm0
	vmovsd	%xmm0, -400(%rbp)
	vmovsd	-544(%rbp), %xmm0               ## xmm0 = mem[0],zero
	vmulsd	-240(%rbp), %xmm0, %xmm0
	vmovsd	-416(%rbp), %xmm1               ## xmm1 = mem[0],zero
	vsubsd	%xmm0, %xmm1, %xmm0
	vmovsd	%xmm0, -416(%rbp)
	vmovsd	-544(%rbp), %xmm0               ## xmm0 = mem[0],zero
	vmulsd	-304(%rbp), %xmm0, %xmm0
	vmovsd	-432(%rbp), %xmm1               ## xmm1 = mem[0],zero
	vsubsd	%xmm0, %xmm1, %xmm0
	vmovsd	%xmm0, -432(%rbp)
	vmovsd	-544(%rbp), %xmm0               ## xmm0 = mem[0],zero
	vmulsd	-368(%rbp), %xmm0, %xmm0
	vmovsd	-448(%rbp), %xmm1               ## xmm1 = mem[0],zero
	vsubsd	%xmm0, %xmm1, %xmm0
	vmovsd	%xmm0, -448(%rbp)
	vmovsd	-560(%rbp), %xmm0               ## xmm0 = mem[0],zero
	vmulsd	-184(%rbp), %xmm0, %xmm0
	vmovsd	-400(%rbp), %xmm1               ## xmm1 = mem[0],zero
	vsubsd	%xmm0, %xmm1, %xmm0
	vmovsd	%xmm0, -400(%rbp)
	vmovsd	-560(%rbp), %xmm0               ## xmm0 = mem[0],zero
	vmulsd	-248(%rbp), %xmm0, %xmm0
	vmovsd	-416(%rbp), %xmm1               ## xmm1 = mem[0],zero
	vsubsd	%xmm0, %xmm1, %xmm0
	vmovsd	%xmm0, -416(%rbp)
	vmovsd	-560(%rbp), %xmm0               ## xmm0 = mem[0],zero
	vmulsd	-312(%rbp), %xmm0, %xmm0
	vmovsd	-432(%rbp), %xmm1               ## xmm1 = mem[0],zero
	vsubsd	%xmm0, %xmm1, %xmm0
	vmovsd	%xmm0, -432(%rbp)
	vmovsd	-560(%rbp), %xmm0               ## xmm0 = mem[0],zero
	vmulsd	-376(%rbp), %xmm0, %xmm0
	vmovsd	-448(%rbp), %xmm1               ## xmm1 = mem[0],zero
	vsubsd	%xmm0, %xmm1, %xmm0
	vmovsd	%xmm0, -448(%rbp)
	vmovsd	-576(%rbp), %xmm0               ## xmm0 = mem[0],zero
	vmulsd	-192(%rbp), %xmm0, %xmm0
	vmovsd	-400(%rbp), %xmm1               ## xmm1 = mem[0],zero
	vsubsd	%xmm0, %xmm1, %xmm0
	vmovsd	%xmm0, -400(%rbp)
	vmovsd	-576(%rbp), %xmm0               ## xmm0 = mem[0],zero
	vmulsd	-256(%rbp), %xmm0, %xmm0
	vmovsd	-416(%rbp), %xmm1               ## xmm1 = mem[0],zero
	vsubsd	%xmm0, %xmm1, %xmm0
	vmovsd	%xmm0, -416(%rbp)
	vmovsd	-576(%rbp), %xmm0               ## xmm0 = mem[0],zero
	vmulsd	-320(%rbp), %xmm0, %xmm0
	vmovsd	-432(%rbp), %xmm1               ## xmm1 = mem[0],zero
	vsubsd	%xmm0, %xmm1, %xmm0
	vmovsd	%xmm0, -432(%rbp)
	vmovsd	-576(%rbp), %xmm0               ## xmm0 = mem[0],zero
	vmulsd	-384(%rbp), %xmm0, %xmm0
	vmovsd	-448(%rbp), %xmm1               ## xmm1 = mem[0],zero
	vsubsd	%xmm0, %xmm1, %xmm0
	vmovsd	%xmm0, -448(%rbp)
	vmovsd	-400(%rbp), %xmm0               ## xmm0 = mem[0],zero
	movq	24(%rbp), %rax
	movl	32(%rbp), %ecx
	movl	-104(%rbp), %edx
	addl	$0, %edx
	imull	%edx, %ecx
	movl	-96(%rbp), %edx
	addl	$0, %edx
	addl	%edx, %ecx
	movslq	%ecx, %rsi
	vmovsd	%xmm0, (%rax,%rsi,8)
	vmovsd	-416(%rbp), %xmm0               ## xmm0 = mem[0],zero
	movq	24(%rbp), %rax
	movl	32(%rbp), %ecx
	movl	-104(%rbp), %edx
	addl	$1, %edx
	imull	%edx, %ecx
	movl	-96(%rbp), %edx
	addl	$0, %edx
	addl	%edx, %ecx
	movslq	%ecx, %rsi
	vmovsd	%xmm0, (%rax,%rsi,8)
	vmovsd	-432(%rbp), %xmm0               ## xmm0 = mem[0],zero
	movq	24(%rbp), %rax
	movl	32(%rbp), %ecx
	movl	-104(%rbp), %edx
	addl	$2, %edx
	imull	%edx, %ecx
	movl	-96(%rbp), %edx
	addl	$0, %edx
	addl	%edx, %ecx
	movslq	%ecx, %rsi
	vmovsd	%xmm0, (%rax,%rsi,8)
	vmovsd	-448(%rbp), %xmm0               ## xmm0 = mem[0],zero
	movq	24(%rbp), %rax
	movl	32(%rbp), %ecx
	movl	-104(%rbp), %edx
	addl	$3, %edx
	imull	%edx, %ecx
	movl	-96(%rbp), %edx
	addl	$0, %edx
	addl	%edx, %ecx
	movslq	%ecx, %rsi
	vmovsd	%xmm0, (%rax,%rsi,8)
## %bb.49:                              ##   in Loop: Header=BB21_47 Depth=5
	movl	-112(%rbp), %eax
	addl	$8, %eax
	movl	%eax, -112(%rbp)
	jmp	LBB21_47
LBB21_50:                               ##   in Loop: Header=BB21_45 Depth=4
	jmp	LBB21_51
LBB21_51:                               ##   in Loop: Header=BB21_45 Depth=4
	movl	-104(%rbp), %eax
	addl	$4, %eax
	movl	%eax, -104(%rbp)
	jmp	LBB21_45
LBB21_52:                               ##   in Loop: Header=BB21_43 Depth=3
	jmp	LBB21_53
LBB21_53:                               ##   in Loop: Header=BB21_43 Depth=3
	movl	-100(%rbp), %eax
	addl	$56, %eax
	movl	%eax, -100(%rbp)
	jmp	LBB21_43
LBB21_54:                               ##   in Loop: Header=BB21_41 Depth=2
	jmp	LBB21_55
LBB21_55:                               ##   Parent Loop BB21_7 Depth=1
                                        ##     Parent Loop BB21_41 Depth=2
                                        ## =>    This Loop Header: Depth=3
                                        ##         Child Loop BB21_57 Depth 4
	movl	-100(%rbp), %eax
	cmpl	-20(%rbp), %eax
	jge	LBB21_62
## %bb.56:                              ##   in Loop: Header=BB21_55 Depth=3
	movl	-92(%rbp), %eax
	movl	%eax, -104(%rbp)
LBB21_57:                               ##   Parent Loop BB21_7 Depth=1
                                        ##     Parent Loop BB21_41 Depth=2
                                        ##       Parent Loop BB21_55 Depth=3
                                        ## =>      This Inner Loop Header: Depth=4
	movl	-104(%rbp), %eax
	movl	-92(%rbp), %ecx
	addl	$56, %ecx
	subl	$4, %ecx
	cmpl	%ecx, %eax
	jg	LBB21_60
## %bb.58:                              ##   in Loop: Header=BB21_57 Depth=4
	movq	24(%rbp), %rax
	movl	32(%rbp), %ecx
	movl	-104(%rbp), %edx
	addl	$0, %edx
	imull	%edx, %ecx
	movl	-96(%rbp), %edx
	addl	$0, %edx
	addl	%edx, %ecx
	movslq	%ecx, %rsi
	vmovsd	(%rax,%rsi,8), %xmm0            ## xmm0 = mem[0],zero
	vmovsd	%xmm0, -400(%rbp)
	movq	24(%rbp), %rax
	movl	32(%rbp), %ecx
	movl	-104(%rbp), %edx
	addl	$1, %edx
	imull	%edx, %ecx
	movl	-96(%rbp), %edx
	addl	$0, %edx
	addl	%edx, %ecx
	movslq	%ecx, %rsi
	vmovsd	(%rax,%rsi,8), %xmm0            ## xmm0 = mem[0],zero
	vmovsd	%xmm0, -416(%rbp)
	movq	24(%rbp), %rax
	movl	32(%rbp), %ecx
	movl	-104(%rbp), %edx
	addl	$2, %edx
	imull	%edx, %ecx
	movl	-96(%rbp), %edx
	addl	$0, %edx
	addl	%edx, %ecx
	movslq	%ecx, %rsi
	vmovsd	(%rax,%rsi,8), %xmm0            ## xmm0 = mem[0],zero
	vmovsd	%xmm0, -432(%rbp)
	movq	24(%rbp), %rax
	movl	32(%rbp), %ecx
	movl	-104(%rbp), %edx
	addl	$3, %edx
	imull	%edx, %ecx
	movl	-96(%rbp), %edx
	addl	$0, %edx
	addl	%edx, %ecx
	movslq	%ecx, %rsi
	vmovsd	(%rax,%rsi,8), %xmm0            ## xmm0 = mem[0],zero
	vmovsd	%xmm0, -448(%rbp)
	movq	-56(%rbp), %rax
	movl	16(%rbp), %ecx
	movl	-100(%rbp), %edx
	addl	$0, %edx
	imull	%edx, %ecx
	movl	-96(%rbp), %edx
	addl	$0, %edx
	addl	%edx, %ecx
	movslq	%ecx, %rsi
	vmovsd	(%rax,%rsi,8), %xmm0            ## xmm0 = mem[0],zero
	vmovsd	%xmm0, -464(%rbp)
	movq	-40(%rbp), %rax
	movl	-44(%rbp), %ecx
	movl	-104(%rbp), %edx
	addl	$0, %edx
	imull	%edx, %ecx
	movl	-100(%rbp), %edx
	addl	$0, %edx
	addl	%edx, %ecx
	movslq	%ecx, %rsi
	vmovsd	(%rax,%rsi,8), %xmm0            ## xmm0 = mem[0],zero
	vmovsd	%xmm0, -136(%rbp)
	movq	-40(%rbp), %rax
	movl	-44(%rbp), %ecx
	movl	-104(%rbp), %edx
	addl	$1, %edx
	imull	%edx, %ecx
	movl	-100(%rbp), %edx
	addl	$0, %edx
	addl	%edx, %ecx
	movslq	%ecx, %rsi
	vmovsd	(%rax,%rsi,8), %xmm0            ## xmm0 = mem[0],zero
	vmovsd	%xmm0, -200(%rbp)
	movq	-40(%rbp), %rax
	movl	-44(%rbp), %ecx
	movl	-104(%rbp), %edx
	addl	$2, %edx
	imull	%edx, %ecx
	movl	-100(%rbp), %edx
	addl	$0, %edx
	addl	%edx, %ecx
	movslq	%ecx, %rsi
	vmovsd	(%rax,%rsi,8), %xmm0            ## xmm0 = mem[0],zero
	vmovsd	%xmm0, -264(%rbp)
	movq	-40(%rbp), %rax
	movl	-44(%rbp), %ecx
	movl	-104(%rbp), %edx
	addl	$3, %edx
	imull	%edx, %ecx
	movl	-100(%rbp), %edx
	addl	$0, %edx
	addl	%edx, %ecx
	movslq	%ecx, %rsi
	vmovsd	(%rax,%rsi,8), %xmm0            ## xmm0 = mem[0],zero
	vmovsd	%xmm0, -328(%rbp)
	vmovsd	-464(%rbp), %xmm0               ## xmm0 = mem[0],zero
	vmulsd	-136(%rbp), %xmm0, %xmm0
	vmovsd	-400(%rbp), %xmm1               ## xmm1 = mem[0],zero
	vsubsd	%xmm0, %xmm1, %xmm0
	vmovsd	%xmm0, -400(%rbp)
	vmovsd	-464(%rbp), %xmm0               ## xmm0 = mem[0],zero
	vmulsd	-200(%rbp), %xmm0, %xmm0
	vmovsd	-416(%rbp), %xmm1               ## xmm1 = mem[0],zero
	vsubsd	%xmm0, %xmm1, %xmm0
	vmovsd	%xmm0, -416(%rbp)
	vmovsd	-464(%rbp), %xmm0               ## xmm0 = mem[0],zero
	vmulsd	-264(%rbp), %xmm0, %xmm0
	vmovsd	-432(%rbp), %xmm1               ## xmm1 = mem[0],zero
	vsubsd	%xmm0, %xmm1, %xmm0
	vmovsd	%xmm0, -432(%rbp)
	vmovsd	-464(%rbp), %xmm0               ## xmm0 = mem[0],zero
	vmulsd	-328(%rbp), %xmm0, %xmm0
	vmovsd	-448(%rbp), %xmm1               ## xmm1 = mem[0],zero
	vsubsd	%xmm0, %xmm1, %xmm0
	vmovsd	%xmm0, -448(%rbp)
	vmovsd	-400(%rbp), %xmm0               ## xmm0 = mem[0],zero
	movq	24(%rbp), %rax
	movl	32(%rbp), %ecx
	movl	-104(%rbp), %edx
	addl	$0, %edx
	imull	%edx, %ecx
	movl	-96(%rbp), %edx
	addl	$0, %edx
	addl	%edx, %ecx
	movslq	%ecx, %rsi
	vmovsd	%xmm0, (%rax,%rsi,8)
	vmovsd	-416(%rbp), %xmm0               ## xmm0 = mem[0],zero
	movq	24(%rbp), %rax
	movl	32(%rbp), %ecx
	movl	-104(%rbp), %edx
	addl	$1, %edx
	imull	%edx, %ecx
	movl	-96(%rbp), %edx
	addl	$0, %edx
	addl	%edx, %ecx
	movslq	%ecx, %rsi
	vmovsd	%xmm0, (%rax,%rsi,8)
	vmovsd	-432(%rbp), %xmm0               ## xmm0 = mem[0],zero
	movq	24(%rbp), %rax
	movl	32(%rbp), %ecx
	movl	-104(%rbp), %edx
	addl	$2, %edx
	imull	%edx, %ecx
	movl	-96(%rbp), %edx
	addl	$0, %edx
	addl	%edx, %ecx
	movslq	%ecx, %rsi
	vmovsd	%xmm0, (%rax,%rsi,8)
	vmovsd	-448(%rbp), %xmm0               ## xmm0 = mem[0],zero
	movq	24(%rbp), %rax
	movl	32(%rbp), %ecx
	movl	-104(%rbp), %edx
	addl	$3, %edx
	imull	%edx, %ecx
	movl	-96(%rbp), %edx
	addl	$0, %edx
	addl	%edx, %ecx
	movslq	%ecx, %rsi
	vmovsd	%xmm0, (%rax,%rsi,8)
## %bb.59:                              ##   in Loop: Header=BB21_57 Depth=4
	movl	-104(%rbp), %eax
	addl	$4, %eax
	movl	%eax, -104(%rbp)
	jmp	LBB21_57
LBB21_60:                               ##   in Loop: Header=BB21_55 Depth=3
	jmp	LBB21_61
LBB21_61:                               ##   in Loop: Header=BB21_55 Depth=3
	movl	-100(%rbp), %eax
	addl	$1, %eax
	movl	%eax, -100(%rbp)
	jmp	LBB21_55
LBB21_62:                               ##   in Loop: Header=BB21_41 Depth=2
	jmp	LBB21_63
LBB21_63:                               ##   in Loop: Header=BB21_41 Depth=2
	movl	-96(%rbp), %eax
	addl	$1, %eax
	movl	%eax, -96(%rbp)
	jmp	LBB21_41
LBB21_64:                               ##   in Loop: Header=BB21_7 Depth=1
	jmp	LBB21_65
LBB21_65:                               ##   in Loop: Header=BB21_7 Depth=1
	movl	-92(%rbp), %eax
	addl	$56, %eax
	movl	%eax, -92(%rbp)
	jmp	LBB21_7
LBB21_66:
	jmp	LBB21_67
LBB21_67:                               ## =>This Loop Header: Depth=1
                                        ##     Child Loop BB21_69 Depth 2
                                        ##       Child Loop BB21_71 Depth 3
                                        ##         Child Loop BB21_73 Depth 4
                                        ##           Child Loop BB21_75 Depth 5
                                        ##       Child Loop BB21_83 Depth 3
                                        ##         Child Loop BB21_85 Depth 4
                                        ##     Child Loop BB21_93 Depth 2
                                        ##       Child Loop BB21_95 Depth 3
                                        ##         Child Loop BB21_97 Depth 4
                                        ##       Child Loop BB21_103 Depth 3
	movl	-92(%rbp), %eax
	cmpl	-12(%rbp), %eax
	jge	LBB21_110
## %bb.68:                              ##   in Loop: Header=BB21_67 Depth=1
	movl	$0, -96(%rbp)
LBB21_69:                               ##   Parent Loop BB21_67 Depth=1
                                        ## =>  This Loop Header: Depth=2
                                        ##       Child Loop BB21_71 Depth 3
                                        ##         Child Loop BB21_73 Depth 4
                                        ##           Child Loop BB21_75 Depth 5
                                        ##       Child Loop BB21_83 Depth 3
                                        ##         Child Loop BB21_85 Depth 4
	movl	-96(%rbp), %eax
	movl	-16(%rbp), %ecx
	subl	$56, %ecx
	cmpl	%ecx, %eax
	jg	LBB21_92
## %bb.70:                              ##   in Loop: Header=BB21_69 Depth=2
	movl	$0, -100(%rbp)
LBB21_71:                               ##   Parent Loop BB21_67 Depth=1
                                        ##     Parent Loop BB21_69 Depth=2
                                        ## =>    This Loop Header: Depth=3
                                        ##         Child Loop BB21_73 Depth 4
                                        ##           Child Loop BB21_75 Depth 5
	movl	-100(%rbp), %eax
	movl	-20(%rbp), %ecx
	subl	$56, %ecx
	cmpl	%ecx, %eax
	jg	LBB21_82
## %bb.72:                              ##   in Loop: Header=BB21_71 Depth=3
	movl	-96(%rbp), %eax
	movl	%eax, -108(%rbp)
LBB21_73:                               ##   Parent Loop BB21_67 Depth=1
                                        ##     Parent Loop BB21_69 Depth=2
                                        ##       Parent Loop BB21_71 Depth=3
                                        ## =>      This Loop Header: Depth=4
                                        ##           Child Loop BB21_75 Depth 5
	movl	-108(%rbp), %eax
	movl	-96(%rbp), %ecx
	addl	$56, %ecx
	subl	$2, %ecx
	cmpl	%ecx, %eax
	jg	LBB21_80
## %bb.74:                              ##   in Loop: Header=BB21_73 Depth=4
	movl	-100(%rbp), %eax
	movl	%eax, -112(%rbp)
LBB21_75:                               ##   Parent Loop BB21_67 Depth=1
                                        ##     Parent Loop BB21_69 Depth=2
                                        ##       Parent Loop BB21_71 Depth=3
                                        ##         Parent Loop BB21_73 Depth=4
                                        ## =>        This Inner Loop Header: Depth=5
	movl	-112(%rbp), %eax
	movl	-100(%rbp), %ecx
	addl	$56, %ecx
	subl	$8, %ecx
	cmpl	%ecx, %eax
	jg	LBB21_78
## %bb.76:                              ##   in Loop: Header=BB21_75 Depth=5
	movq	24(%rbp), %rax
	movl	32(%rbp), %ecx
	movl	-92(%rbp), %edx
	addl	$0, %edx
	imull	%edx, %ecx
	movl	-108(%rbp), %edx
	addl	$0, %edx
	addl	%edx, %ecx
	movslq	%ecx, %rsi
	vmovsd	(%rax,%rsi,8), %xmm0            ## xmm0 = mem[0],zero
	vmovsd	%xmm0, -400(%rbp)
	movq	24(%rbp), %rax
	movl	32(%rbp), %ecx
	movl	-92(%rbp), %edx
	addl	$0, %edx
	imull	%edx, %ecx
	movl	-108(%rbp), %edx
	addl	$1, %edx
	addl	%edx, %ecx
	movslq	%ecx, %rsi
	vmovsd	(%rax,%rsi,8), %xmm0            ## xmm0 = mem[0],zero
	vmovsd	%xmm0, -408(%rbp)
	movq	-56(%rbp), %rax
	movl	16(%rbp), %ecx
	movl	-112(%rbp), %edx
	addl	$0, %edx
	imull	%edx, %ecx
	movl	-108(%rbp), %edx
	addl	$0, %edx
	addl	%edx, %ecx
	movslq	%ecx, %rsi
	vmovsd	(%rax,%rsi,8), %xmm0            ## xmm0 = mem[0],zero
	vmovsd	%xmm0, -464(%rbp)
	movq	-56(%rbp), %rax
	movl	16(%rbp), %ecx
	movl	-112(%rbp), %edx
	addl	$0, %edx
	imull	%edx, %ecx
	movl	-108(%rbp), %edx
	addl	$1, %edx
	addl	%edx, %ecx
	movslq	%ecx, %rsi
	vmovsd	(%rax,%rsi,8), %xmm0            ## xmm0 = mem[0],zero
	vmovsd	%xmm0, -472(%rbp)
	movq	-56(%rbp), %rax
	movl	16(%rbp), %ecx
	movl	-112(%rbp), %edx
	addl	$1, %edx
	imull	%edx, %ecx
	movl	-108(%rbp), %edx
	addl	$0, %edx
	addl	%edx, %ecx
	movslq	%ecx, %rsi
	vmovsd	(%rax,%rsi,8), %xmm0            ## xmm0 = mem[0],zero
	vmovsd	%xmm0, -480(%rbp)
	movq	-56(%rbp), %rax
	movl	16(%rbp), %ecx
	movl	-112(%rbp), %edx
	addl	$1, %edx
	imull	%edx, %ecx
	movl	-108(%rbp), %edx
	addl	$1, %edx
	addl	%edx, %ecx
	movslq	%ecx, %rsi
	vmovsd	(%rax,%rsi,8), %xmm0            ## xmm0 = mem[0],zero
	vmovsd	%xmm0, -488(%rbp)
	movq	-56(%rbp), %rax
	movl	16(%rbp), %ecx
	movl	-112(%rbp), %edx
	addl	$2, %edx
	imull	%edx, %ecx
	movl	-108(%rbp), %edx
	addl	$0, %edx
	addl	%edx, %ecx
	movslq	%ecx, %rsi
	vmovsd	(%rax,%rsi,8), %xmm0            ## xmm0 = mem[0],zero
	vmovsd	%xmm0, -496(%rbp)
	movq	-56(%rbp), %rax
	movl	16(%rbp), %ecx
	movl	-112(%rbp), %edx
	addl	$2, %edx
	imull	%edx, %ecx
	movl	-108(%rbp), %edx
	addl	$1, %edx
	addl	%edx, %ecx
	movslq	%ecx, %rsi
	vmovsd	(%rax,%rsi,8), %xmm0            ## xmm0 = mem[0],zero
	vmovsd	%xmm0, -504(%rbp)
	movq	-56(%rbp), %rax
	movl	16(%rbp), %ecx
	movl	-112(%rbp), %edx
	addl	$3, %edx
	imull	%edx, %ecx
	movl	-108(%rbp), %edx
	addl	$0, %edx
	addl	%edx, %ecx
	movslq	%ecx, %rsi
	vmovsd	(%rax,%rsi,8), %xmm0            ## xmm0 = mem[0],zero
	vmovsd	%xmm0, -512(%rbp)
	movq	-56(%rbp), %rax
	movl	16(%rbp), %ecx
	movl	-112(%rbp), %edx
	addl	$3, %edx
	imull	%edx, %ecx
	movl	-108(%rbp), %edx
	addl	$1, %edx
	addl	%edx, %ecx
	movslq	%ecx, %rsi
	vmovsd	(%rax,%rsi,8), %xmm0            ## xmm0 = mem[0],zero
	vmovsd	%xmm0, -520(%rbp)
	movq	-56(%rbp), %rax
	movl	16(%rbp), %ecx
	movl	-112(%rbp), %edx
	addl	$4, %edx
	imull	%edx, %ecx
	movl	-108(%rbp), %edx
	addl	$0, %edx
	addl	%edx, %ecx
	movslq	%ecx, %rsi
	vmovsd	(%rax,%rsi,8), %xmm0            ## xmm0 = mem[0],zero
	vmovsd	%xmm0, -528(%rbp)
	movq	-56(%rbp), %rax
	movl	16(%rbp), %ecx
	movl	-112(%rbp), %edx
	addl	$4, %edx
	imull	%edx, %ecx
	movl	-108(%rbp), %edx
	addl	$1, %edx
	addl	%edx, %ecx
	movslq	%ecx, %rsi
	vmovsd	(%rax,%rsi,8), %xmm0            ## xmm0 = mem[0],zero
	vmovsd	%xmm0, -536(%rbp)
	movq	-56(%rbp), %rax
	movl	16(%rbp), %ecx
	movl	-112(%rbp), %edx
	addl	$5, %edx
	imull	%edx, %ecx
	movl	-108(%rbp), %edx
	addl	$0, %edx
	addl	%edx, %ecx
	movslq	%ecx, %rsi
	vmovsd	(%rax,%rsi,8), %xmm0            ## xmm0 = mem[0],zero
	vmovsd	%xmm0, -544(%rbp)
	movq	-56(%rbp), %rax
	movl	16(%rbp), %ecx
	movl	-112(%rbp), %edx
	addl	$5, %edx
	imull	%edx, %ecx
	movl	-108(%rbp), %edx
	addl	$1, %edx
	addl	%edx, %ecx
	movslq	%ecx, %rsi
	vmovsd	(%rax,%rsi,8), %xmm0            ## xmm0 = mem[0],zero
	vmovsd	%xmm0, -552(%rbp)
	movq	-56(%rbp), %rax
	movl	16(%rbp), %ecx
	movl	-112(%rbp), %edx
	addl	$6, %edx
	imull	%edx, %ecx
	movl	-108(%rbp), %edx
	addl	$0, %edx
	addl	%edx, %ecx
	movslq	%ecx, %rsi
	vmovsd	(%rax,%rsi,8), %xmm0            ## xmm0 = mem[0],zero
	vmovsd	%xmm0, -560(%rbp)
	movq	-56(%rbp), %rax
	movl	16(%rbp), %ecx
	movl	-112(%rbp), %edx
	addl	$6, %edx
	imull	%edx, %ecx
	movl	-108(%rbp), %edx
	addl	$1, %edx
	addl	%edx, %ecx
	movslq	%ecx, %rsi
	vmovsd	(%rax,%rsi,8), %xmm0            ## xmm0 = mem[0],zero
	vmovsd	%xmm0, -568(%rbp)
	movq	-56(%rbp), %rax
	movl	16(%rbp), %ecx
	movl	-112(%rbp), %edx
	addl	$7, %edx
	imull	%edx, %ecx
	movl	-108(%rbp), %edx
	addl	$0, %edx
	addl	%edx, %ecx
	movslq	%ecx, %rsi
	vmovsd	(%rax,%rsi,8), %xmm0            ## xmm0 = mem[0],zero
	vmovsd	%xmm0, -576(%rbp)
	movq	-56(%rbp), %rax
	movl	16(%rbp), %ecx
	movl	-112(%rbp), %edx
	addl	$7, %edx
	imull	%edx, %ecx
	movl	-108(%rbp), %edx
	addl	$1, %edx
	addl	%edx, %ecx
	movslq	%ecx, %rsi
	vmovsd	(%rax,%rsi,8), %xmm0            ## xmm0 = mem[0],zero
	vmovsd	%xmm0, -584(%rbp)
	movq	-40(%rbp), %rax
	movl	-44(%rbp), %ecx
	movl	-92(%rbp), %edx
	addl	$0, %edx
	imull	%edx, %ecx
	movl	-112(%rbp), %edx
	addl	$0, %edx
	addl	%edx, %ecx
	movslq	%ecx, %rsi
	vmovsd	(%rax,%rsi,8), %xmm0            ## xmm0 = mem[0],zero
	vmovsd	%xmm0, -136(%rbp)
	movq	-40(%rbp), %rax
	movl	-44(%rbp), %ecx
	movl	-92(%rbp), %edx
	addl	$0, %edx
	imull	%edx, %ecx
	movl	-112(%rbp), %edx
	addl	$1, %edx
	addl	%edx, %ecx
	movslq	%ecx, %rsi
	vmovsd	(%rax,%rsi,8), %xmm0            ## xmm0 = mem[0],zero
	vmovsd	%xmm0, -144(%rbp)
	movq	-40(%rbp), %rax
	movl	-44(%rbp), %ecx
	movl	-92(%rbp), %edx
	addl	$0, %edx
	imull	%edx, %ecx
	movl	-112(%rbp), %edx
	addl	$2, %edx
	addl	%edx, %ecx
	movslq	%ecx, %rsi
	vmovsd	(%rax,%rsi,8), %xmm0            ## xmm0 = mem[0],zero
	vmovsd	%xmm0, -152(%rbp)
	movq	-40(%rbp), %rax
	movl	-44(%rbp), %ecx
	movl	-92(%rbp), %edx
	addl	$0, %edx
	imull	%edx, %ecx
	movl	-112(%rbp), %edx
	addl	$3, %edx
	addl	%edx, %ecx
	movslq	%ecx, %rsi
	vmovsd	(%rax,%rsi,8), %xmm0            ## xmm0 = mem[0],zero
	vmovsd	%xmm0, -160(%rbp)
	movq	-40(%rbp), %rax
	movl	-44(%rbp), %ecx
	movl	-92(%rbp), %edx
	addl	$0, %edx
	imull	%edx, %ecx
	movl	-112(%rbp), %edx
	addl	$4, %edx
	addl	%edx, %ecx
	movslq	%ecx, %rsi
	vmovsd	(%rax,%rsi,8), %xmm0            ## xmm0 = mem[0],zero
	vmovsd	%xmm0, -168(%rbp)
	movq	-40(%rbp), %rax
	movl	-44(%rbp), %ecx
	movl	-92(%rbp), %edx
	addl	$0, %edx
	imull	%edx, %ecx
	movl	-112(%rbp), %edx
	addl	$5, %edx
	addl	%edx, %ecx
	movslq	%ecx, %rsi
	vmovsd	(%rax,%rsi,8), %xmm0            ## xmm0 = mem[0],zero
	vmovsd	%xmm0, -176(%rbp)
	movq	-40(%rbp), %rax
	movl	-44(%rbp), %ecx
	movl	-92(%rbp), %edx
	addl	$0, %edx
	imull	%edx, %ecx
	movl	-112(%rbp), %edx
	addl	$6, %edx
	addl	%edx, %ecx
	movslq	%ecx, %rsi
	vmovsd	(%rax,%rsi,8), %xmm0            ## xmm0 = mem[0],zero
	vmovsd	%xmm0, -184(%rbp)
	movq	-40(%rbp), %rax
	movl	-44(%rbp), %ecx
	movl	-92(%rbp), %edx
	addl	$0, %edx
	imull	%edx, %ecx
	movl	-112(%rbp), %edx
	addl	$7, %edx
	addl	%edx, %ecx
	movslq	%ecx, %rsi
	vmovsd	(%rax,%rsi,8), %xmm0            ## xmm0 = mem[0],zero
	vmovsd	%xmm0, -192(%rbp)
	vmovsd	-464(%rbp), %xmm0               ## xmm0 = mem[0],zero
	vmulsd	-136(%rbp), %xmm0, %xmm0
	vmovsd	-400(%rbp), %xmm1               ## xmm1 = mem[0],zero
	vsubsd	%xmm0, %xmm1, %xmm0
	vmovsd	%xmm0, -400(%rbp)
	vmovsd	-472(%rbp), %xmm0               ## xmm0 = mem[0],zero
	vmulsd	-136(%rbp), %xmm0, %xmm0
	vmovsd	-408(%rbp), %xmm1               ## xmm1 = mem[0],zero
	vsubsd	%xmm0, %xmm1, %xmm0
	vmovsd	%xmm0, -408(%rbp)
	vmovsd	-480(%rbp), %xmm0               ## xmm0 = mem[0],zero
	vmulsd	-144(%rbp), %xmm0, %xmm0
	vmovsd	-400(%rbp), %xmm1               ## xmm1 = mem[0],zero
	vsubsd	%xmm0, %xmm1, %xmm0
	vmovsd	%xmm0, -400(%rbp)
	vmovsd	-488(%rbp), %xmm0               ## xmm0 = mem[0],zero
	vmulsd	-144(%rbp), %xmm0, %xmm0
	vmovsd	-408(%rbp), %xmm1               ## xmm1 = mem[0],zero
	vsubsd	%xmm0, %xmm1, %xmm0
	vmovsd	%xmm0, -408(%rbp)
	vmovsd	-496(%rbp), %xmm0               ## xmm0 = mem[0],zero
	vmulsd	-152(%rbp), %xmm0, %xmm0
	vmovsd	-400(%rbp), %xmm1               ## xmm1 = mem[0],zero
	vsubsd	%xmm0, %xmm1, %xmm0
	vmovsd	%xmm0, -400(%rbp)
	vmovsd	-504(%rbp), %xmm0               ## xmm0 = mem[0],zero
	vmulsd	-152(%rbp), %xmm0, %xmm0
	vmovsd	-408(%rbp), %xmm1               ## xmm1 = mem[0],zero
	vsubsd	%xmm0, %xmm1, %xmm0
	vmovsd	%xmm0, -408(%rbp)
	vmovsd	-512(%rbp), %xmm0               ## xmm0 = mem[0],zero
	vmulsd	-160(%rbp), %xmm0, %xmm0
	vmovsd	-400(%rbp), %xmm1               ## xmm1 = mem[0],zero
	vsubsd	%xmm0, %xmm1, %xmm0
	vmovsd	%xmm0, -400(%rbp)
	vmovsd	-520(%rbp), %xmm0               ## xmm0 = mem[0],zero
	vmulsd	-160(%rbp), %xmm0, %xmm0
	vmovsd	-408(%rbp), %xmm1               ## xmm1 = mem[0],zero
	vsubsd	%xmm0, %xmm1, %xmm0
	vmovsd	%xmm0, -408(%rbp)
	vmovsd	-528(%rbp), %xmm0               ## xmm0 = mem[0],zero
	vmulsd	-168(%rbp), %xmm0, %xmm0
	vmovsd	-400(%rbp), %xmm1               ## xmm1 = mem[0],zero
	vsubsd	%xmm0, %xmm1, %xmm0
	vmovsd	%xmm0, -400(%rbp)
	vmovsd	-536(%rbp), %xmm0               ## xmm0 = mem[0],zero
	vmulsd	-168(%rbp), %xmm0, %xmm0
	vmovsd	-408(%rbp), %xmm1               ## xmm1 = mem[0],zero
	vsubsd	%xmm0, %xmm1, %xmm0
	vmovsd	%xmm0, -408(%rbp)
	vmovsd	-544(%rbp), %xmm0               ## xmm0 = mem[0],zero
	vmulsd	-176(%rbp), %xmm0, %xmm0
	vmovsd	-400(%rbp), %xmm1               ## xmm1 = mem[0],zero
	vsubsd	%xmm0, %xmm1, %xmm0
	vmovsd	%xmm0, -400(%rbp)
	vmovsd	-552(%rbp), %xmm0               ## xmm0 = mem[0],zero
	vmulsd	-176(%rbp), %xmm0, %xmm0
	vmovsd	-408(%rbp), %xmm1               ## xmm1 = mem[0],zero
	vsubsd	%xmm0, %xmm1, %xmm0
	vmovsd	%xmm0, -408(%rbp)
	vmovsd	-560(%rbp), %xmm0               ## xmm0 = mem[0],zero
	vmulsd	-184(%rbp), %xmm0, %xmm0
	vmovsd	-400(%rbp), %xmm1               ## xmm1 = mem[0],zero
	vsubsd	%xmm0, %xmm1, %xmm0
	vmovsd	%xmm0, -400(%rbp)
	vmovsd	-568(%rbp), %xmm0               ## xmm0 = mem[0],zero
	vmulsd	-184(%rbp), %xmm0, %xmm0
	vmovsd	-408(%rbp), %xmm1               ## xmm1 = mem[0],zero
	vsubsd	%xmm0, %xmm1, %xmm0
	vmovsd	%xmm0, -408(%rbp)
	vmovsd	-576(%rbp), %xmm0               ## xmm0 = mem[0],zero
	vmulsd	-192(%rbp), %xmm0, %xmm0
	vmovsd	-400(%rbp), %xmm1               ## xmm1 = mem[0],zero
	vsubsd	%xmm0, %xmm1, %xmm0
	vmovsd	%xmm0, -400(%rbp)
	vmovsd	-584(%rbp), %xmm0               ## xmm0 = mem[0],zero
	vmulsd	-192(%rbp), %xmm0, %xmm0
	vmovsd	-408(%rbp), %xmm1               ## xmm1 = mem[0],zero
	vsubsd	%xmm0, %xmm1, %xmm0
	vmovsd	%xmm0, -408(%rbp)
	vmovsd	-400(%rbp), %xmm0               ## xmm0 = mem[0],zero
	movq	24(%rbp), %rax
	movl	32(%rbp), %ecx
	movl	-92(%rbp), %edx
	addl	$0, %edx
	imull	%edx, %ecx
	movl	-108(%rbp), %edx
	addl	$0, %edx
	addl	%edx, %ecx
	movslq	%ecx, %rsi
	vmovsd	%xmm0, (%rax,%rsi,8)
	vmovsd	-408(%rbp), %xmm0               ## xmm0 = mem[0],zero
	movq	24(%rbp), %rax
	movl	32(%rbp), %ecx
	movl	-92(%rbp), %edx
	addl	$0, %edx
	imull	%edx, %ecx
	movl	-108(%rbp), %edx
	addl	$1, %edx
	addl	%edx, %ecx
	movslq	%ecx, %rsi
	vmovsd	%xmm0, (%rax,%rsi,8)
## %bb.77:                              ##   in Loop: Header=BB21_75 Depth=5
	movl	-112(%rbp), %eax
	addl	$8, %eax
	movl	%eax, -112(%rbp)
	jmp	LBB21_75
LBB21_78:                               ##   in Loop: Header=BB21_73 Depth=4
	jmp	LBB21_79
LBB21_79:                               ##   in Loop: Header=BB21_73 Depth=4
	movl	-108(%rbp), %eax
	addl	$2, %eax
	movl	%eax, -108(%rbp)
	jmp	LBB21_73
LBB21_80:                               ##   in Loop: Header=BB21_71 Depth=3
	jmp	LBB21_81
LBB21_81:                               ##   in Loop: Header=BB21_71 Depth=3
	movl	-100(%rbp), %eax
	addl	$56, %eax
	movl	%eax, -100(%rbp)
	jmp	LBB21_71
LBB21_82:                               ##   in Loop: Header=BB21_69 Depth=2
	jmp	LBB21_83
LBB21_83:                               ##   Parent Loop BB21_67 Depth=1
                                        ##     Parent Loop BB21_69 Depth=2
                                        ## =>    This Loop Header: Depth=3
                                        ##         Child Loop BB21_85 Depth 4
	movl	-100(%rbp), %eax
	cmpl	-20(%rbp), %eax
	jge	LBB21_90
## %bb.84:                              ##   in Loop: Header=BB21_83 Depth=3
	movl	-96(%rbp), %eax
	movl	%eax, -108(%rbp)
LBB21_85:                               ##   Parent Loop BB21_67 Depth=1
                                        ##     Parent Loop BB21_69 Depth=2
                                        ##       Parent Loop BB21_83 Depth=3
                                        ## =>      This Inner Loop Header: Depth=4
	movl	-108(%rbp), %eax
	movl	-96(%rbp), %ecx
	addl	$56, %ecx
	subl	$2, %ecx
	cmpl	%ecx, %eax
	jg	LBB21_88
## %bb.86:                              ##   in Loop: Header=BB21_85 Depth=4
	movq	24(%rbp), %rax
	movl	32(%rbp), %ecx
	movl	-92(%rbp), %edx
	addl	$0, %edx
	imull	%edx, %ecx
	movl	-108(%rbp), %edx
	addl	$0, %edx
	addl	%edx, %ecx
	movslq	%ecx, %rsi
	vmovsd	(%rax,%rsi,8), %xmm0            ## xmm0 = mem[0],zero
	vmovsd	%xmm0, -400(%rbp)
	movq	24(%rbp), %rax
	movl	32(%rbp), %ecx
	movl	-92(%rbp), %edx
	addl	$0, %edx
	imull	%edx, %ecx
	movl	-108(%rbp), %edx
	addl	$1, %edx
	addl	%edx, %ecx
	movslq	%ecx, %rsi
	vmovsd	(%rax,%rsi,8), %xmm0            ## xmm0 = mem[0],zero
	vmovsd	%xmm0, -408(%rbp)
	movq	-56(%rbp), %rax
	movl	16(%rbp), %ecx
	movl	-100(%rbp), %edx
	addl	$0, %edx
	imull	%edx, %ecx
	movl	-108(%rbp), %edx
	addl	$0, %edx
	addl	%edx, %ecx
	movslq	%ecx, %rsi
	vmovsd	(%rax,%rsi,8), %xmm0            ## xmm0 = mem[0],zero
	vmovsd	%xmm0, -464(%rbp)
	movq	-56(%rbp), %rax
	movl	16(%rbp), %ecx
	movl	-100(%rbp), %edx
	addl	$0, %edx
	imull	%edx, %ecx
	movl	-108(%rbp), %edx
	addl	$1, %edx
	addl	%edx, %ecx
	movslq	%ecx, %rsi
	vmovsd	(%rax,%rsi,8), %xmm0            ## xmm0 = mem[0],zero
	vmovsd	%xmm0, -472(%rbp)
	movq	-40(%rbp), %rax
	movl	-44(%rbp), %ecx
	movl	-92(%rbp), %edx
	addl	$0, %edx
	imull	%edx, %ecx
	movl	-100(%rbp), %edx
	addl	$0, %edx
	addl	%edx, %ecx
	movslq	%ecx, %rsi
	vmovsd	(%rax,%rsi,8), %xmm0            ## xmm0 = mem[0],zero
	vmovsd	%xmm0, -136(%rbp)
	vmovsd	-464(%rbp), %xmm0               ## xmm0 = mem[0],zero
	vmulsd	-136(%rbp), %xmm0, %xmm0
	vmovsd	-400(%rbp), %xmm1               ## xmm1 = mem[0],zero
	vsubsd	%xmm0, %xmm1, %xmm0
	vmovsd	%xmm0, -400(%rbp)
	vmovsd	-472(%rbp), %xmm0               ## xmm0 = mem[0],zero
	vmulsd	-136(%rbp), %xmm0, %xmm0
	vmovsd	-408(%rbp), %xmm1               ## xmm1 = mem[0],zero
	vsubsd	%xmm0, %xmm1, %xmm0
	vmovsd	%xmm0, -408(%rbp)
	vmovsd	-400(%rbp), %xmm0               ## xmm0 = mem[0],zero
	movq	24(%rbp), %rax
	movl	32(%rbp), %ecx
	movl	-92(%rbp), %edx
	addl	$0, %edx
	imull	%edx, %ecx
	movl	-108(%rbp), %edx
	addl	$0, %edx
	addl	%edx, %ecx
	movslq	%ecx, %rsi
	vmovsd	%xmm0, (%rax,%rsi,8)
	vmovsd	-408(%rbp), %xmm0               ## xmm0 = mem[0],zero
	movq	24(%rbp), %rax
	movl	32(%rbp), %ecx
	movl	-92(%rbp), %edx
	addl	$0, %edx
	imull	%edx, %ecx
	movl	-108(%rbp), %edx
	addl	$1, %edx
	addl	%edx, %ecx
	movslq	%ecx, %rsi
	vmovsd	%xmm0, (%rax,%rsi,8)
## %bb.87:                              ##   in Loop: Header=BB21_85 Depth=4
	movl	-108(%rbp), %eax
	addl	$2, %eax
	movl	%eax, -108(%rbp)
	jmp	LBB21_85
LBB21_88:                               ##   in Loop: Header=BB21_83 Depth=3
	jmp	LBB21_89
LBB21_89:                               ##   in Loop: Header=BB21_83 Depth=3
	movl	-100(%rbp), %eax
	addl	$1, %eax
	movl	%eax, -100(%rbp)
	jmp	LBB21_83
LBB21_90:                               ##   in Loop: Header=BB21_69 Depth=2
	jmp	LBB21_91
LBB21_91:                               ##   in Loop: Header=BB21_69 Depth=2
	movl	-96(%rbp), %eax
	addl	$56, %eax
	movl	%eax, -96(%rbp)
	jmp	LBB21_69
LBB21_92:                               ##   in Loop: Header=BB21_67 Depth=1
	jmp	LBB21_93
LBB21_93:                               ##   Parent Loop BB21_67 Depth=1
                                        ## =>  This Loop Header: Depth=2
                                        ##       Child Loop BB21_95 Depth 3
                                        ##         Child Loop BB21_97 Depth 4
                                        ##       Child Loop BB21_103 Depth 3
	movl	-96(%rbp), %eax
	cmpl	-16(%rbp), %eax
	jge	LBB21_108
## %bb.94:                              ##   in Loop: Header=BB21_93 Depth=2
	movl	$0, -100(%rbp)
LBB21_95:                               ##   Parent Loop BB21_67 Depth=1
                                        ##     Parent Loop BB21_93 Depth=2
                                        ## =>    This Loop Header: Depth=3
                                        ##         Child Loop BB21_97 Depth 4
	movl	-100(%rbp), %eax
	movl	-20(%rbp), %ecx
	subl	$56, %ecx
	cmpl	%ecx, %eax
	jg	LBB21_102
## %bb.96:                              ##   in Loop: Header=BB21_95 Depth=3
	movl	-100(%rbp), %eax
	movl	%eax, -112(%rbp)
LBB21_97:                               ##   Parent Loop BB21_67 Depth=1
                                        ##     Parent Loop BB21_93 Depth=2
                                        ##       Parent Loop BB21_95 Depth=3
                                        ## =>      This Inner Loop Header: Depth=4
	movl	-112(%rbp), %eax
	movl	-100(%rbp), %ecx
	addl	$56, %ecx
	subl	$8, %ecx
	cmpl	%ecx, %eax
	jg	LBB21_100
## %bb.98:                              ##   in Loop: Header=BB21_97 Depth=4
	movq	24(%rbp), %rax
	movl	32(%rbp), %ecx
	movl	-92(%rbp), %edx
	addl	$0, %edx
	imull	%edx, %ecx
	movl	-96(%rbp), %edx
	addl	$0, %edx
	addl	%edx, %ecx
	movslq	%ecx, %rsi
	vmovsd	(%rax,%rsi,8), %xmm0            ## xmm0 = mem[0],zero
	vmovsd	%xmm0, -400(%rbp)
	movq	-56(%rbp), %rax
	movl	16(%rbp), %ecx
	movl	-112(%rbp), %edx
	addl	$0, %edx
	imull	%edx, %ecx
	movl	-96(%rbp), %edx
	addl	$0, %edx
	addl	%edx, %ecx
	movslq	%ecx, %rsi
	vmovsd	(%rax,%rsi,8), %xmm0            ## xmm0 = mem[0],zero
	vmovsd	%xmm0, -464(%rbp)
	movq	-56(%rbp), %rax
	movl	16(%rbp), %ecx
	movl	-112(%rbp), %edx
	addl	$1, %edx
	imull	%edx, %ecx
	movl	-96(%rbp), %edx
	addl	$0, %edx
	addl	%edx, %ecx
	movslq	%ecx, %rsi
	vmovsd	(%rax,%rsi,8), %xmm0            ## xmm0 = mem[0],zero
	vmovsd	%xmm0, -480(%rbp)
	movq	-56(%rbp), %rax
	movl	16(%rbp), %ecx
	movl	-112(%rbp), %edx
	addl	$2, %edx
	imull	%edx, %ecx
	movl	-96(%rbp), %edx
	addl	$0, %edx
	addl	%edx, %ecx
	movslq	%ecx, %rsi
	vmovsd	(%rax,%rsi,8), %xmm0            ## xmm0 = mem[0],zero
	vmovsd	%xmm0, -496(%rbp)
	movq	-56(%rbp), %rax
	movl	16(%rbp), %ecx
	movl	-112(%rbp), %edx
	addl	$3, %edx
	imull	%edx, %ecx
	movl	-96(%rbp), %edx
	addl	$0, %edx
	addl	%edx, %ecx
	movslq	%ecx, %rsi
	vmovsd	(%rax,%rsi,8), %xmm0            ## xmm0 = mem[0],zero
	vmovsd	%xmm0, -512(%rbp)
	movq	-56(%rbp), %rax
	movl	16(%rbp), %ecx
	movl	-112(%rbp), %edx
	addl	$4, %edx
	imull	%edx, %ecx
	movl	-96(%rbp), %edx
	addl	$0, %edx
	addl	%edx, %ecx
	movslq	%ecx, %rsi
	vmovsd	(%rax,%rsi,8), %xmm0            ## xmm0 = mem[0],zero
	vmovsd	%xmm0, -528(%rbp)
	movq	-56(%rbp), %rax
	movl	16(%rbp), %ecx
	movl	-112(%rbp), %edx
	addl	$5, %edx
	imull	%edx, %ecx
	movl	-96(%rbp), %edx
	addl	$0, %edx
	addl	%edx, %ecx
	movslq	%ecx, %rsi
	vmovsd	(%rax,%rsi,8), %xmm0            ## xmm0 = mem[0],zero
	vmovsd	%xmm0, -544(%rbp)
	movq	-56(%rbp), %rax
	movl	16(%rbp), %ecx
	movl	-112(%rbp), %edx
	addl	$6, %edx
	imull	%edx, %ecx
	movl	-96(%rbp), %edx
	addl	$0, %edx
	addl	%edx, %ecx
	movslq	%ecx, %rsi
	vmovsd	(%rax,%rsi,8), %xmm0            ## xmm0 = mem[0],zero
	vmovsd	%xmm0, -560(%rbp)
	movq	-56(%rbp), %rax
	movl	16(%rbp), %ecx
	movl	-112(%rbp), %edx
	addl	$7, %edx
	imull	%edx, %ecx
	movl	-96(%rbp), %edx
	addl	$0, %edx
	addl	%edx, %ecx
	movslq	%ecx, %rsi
	vmovsd	(%rax,%rsi,8), %xmm0            ## xmm0 = mem[0],zero
	vmovsd	%xmm0, -576(%rbp)
	movq	-40(%rbp), %rax
	movl	-44(%rbp), %ecx
	movl	-92(%rbp), %edx
	addl	$0, %edx
	imull	%edx, %ecx
	movl	-112(%rbp), %edx
	addl	$0, %edx
	addl	%edx, %ecx
	movslq	%ecx, %rsi
	vmovsd	(%rax,%rsi,8), %xmm0            ## xmm0 = mem[0],zero
	vmovsd	%xmm0, -136(%rbp)
	movq	-40(%rbp), %rax
	movl	-44(%rbp), %ecx
	movl	-92(%rbp), %edx
	addl	$0, %edx
	imull	%edx, %ecx
	movl	-112(%rbp), %edx
	addl	$1, %edx
	addl	%edx, %ecx
	movslq	%ecx, %rsi
	vmovsd	(%rax,%rsi,8), %xmm0            ## xmm0 = mem[0],zero
	vmovsd	%xmm0, -144(%rbp)
	movq	-40(%rbp), %rax
	movl	-44(%rbp), %ecx
	movl	-92(%rbp), %edx
	addl	$0, %edx
	imull	%edx, %ecx
	movl	-112(%rbp), %edx
	addl	$2, %edx
	addl	%edx, %ecx
	movslq	%ecx, %rsi
	vmovsd	(%rax,%rsi,8), %xmm0            ## xmm0 = mem[0],zero
	vmovsd	%xmm0, -152(%rbp)
	movq	-40(%rbp), %rax
	movl	-44(%rbp), %ecx
	movl	-92(%rbp), %edx
	addl	$0, %edx
	imull	%edx, %ecx
	movl	-112(%rbp), %edx
	addl	$3, %edx
	addl	%edx, %ecx
	movslq	%ecx, %rsi
	vmovsd	(%rax,%rsi,8), %xmm0            ## xmm0 = mem[0],zero
	vmovsd	%xmm0, -160(%rbp)
	movq	-40(%rbp), %rax
	movl	-44(%rbp), %ecx
	movl	-92(%rbp), %edx
	addl	$0, %edx
	imull	%edx, %ecx
	movl	-112(%rbp), %edx
	addl	$4, %edx
	addl	%edx, %ecx
	movslq	%ecx, %rsi
	vmovsd	(%rax,%rsi,8), %xmm0            ## xmm0 = mem[0],zero
	vmovsd	%xmm0, -168(%rbp)
	movq	-40(%rbp), %rax
	movl	-44(%rbp), %ecx
	movl	-92(%rbp), %edx
	addl	$0, %edx
	imull	%edx, %ecx
	movl	-112(%rbp), %edx
	addl	$5, %edx
	addl	%edx, %ecx
	movslq	%ecx, %rsi
	vmovsd	(%rax,%rsi,8), %xmm0            ## xmm0 = mem[0],zero
	vmovsd	%xmm0, -176(%rbp)
	movq	-40(%rbp), %rax
	movl	-44(%rbp), %ecx
	movl	-92(%rbp), %edx
	addl	$0, %edx
	imull	%edx, %ecx
	movl	-112(%rbp), %edx
	addl	$6, %edx
	addl	%edx, %ecx
	movslq	%ecx, %rsi
	vmovsd	(%rax,%rsi,8), %xmm0            ## xmm0 = mem[0],zero
	vmovsd	%xmm0, -184(%rbp)
	movq	-40(%rbp), %rax
	movl	-44(%rbp), %ecx
	movl	-92(%rbp), %edx
	addl	$0, %edx
	imull	%edx, %ecx
	movl	-112(%rbp), %edx
	addl	$7, %edx
	addl	%edx, %ecx
	movslq	%ecx, %rsi
	vmovsd	(%rax,%rsi,8), %xmm0            ## xmm0 = mem[0],zero
	vmovsd	%xmm0, -192(%rbp)
	vmovsd	-464(%rbp), %xmm0               ## xmm0 = mem[0],zero
	vmulsd	-136(%rbp), %xmm0, %xmm0
	vmovsd	-400(%rbp), %xmm1               ## xmm1 = mem[0],zero
	vsubsd	%xmm0, %xmm1, %xmm0
	vmovsd	%xmm0, -400(%rbp)
	vmovsd	-480(%rbp), %xmm0               ## xmm0 = mem[0],zero
	vmulsd	-144(%rbp), %xmm0, %xmm0
	vmovsd	-400(%rbp), %xmm1               ## xmm1 = mem[0],zero
	vsubsd	%xmm0, %xmm1, %xmm0
	vmovsd	%xmm0, -400(%rbp)
	vmovsd	-496(%rbp), %xmm0               ## xmm0 = mem[0],zero
	vmulsd	-152(%rbp), %xmm0, %xmm0
	vmovsd	-400(%rbp), %xmm1               ## xmm1 = mem[0],zero
	vsubsd	%xmm0, %xmm1, %xmm0
	vmovsd	%xmm0, -400(%rbp)
	vmovsd	-512(%rbp), %xmm0               ## xmm0 = mem[0],zero
	vmulsd	-160(%rbp), %xmm0, %xmm0
	vmovsd	-400(%rbp), %xmm1               ## xmm1 = mem[0],zero
	vsubsd	%xmm0, %xmm1, %xmm0
	vmovsd	%xmm0, -400(%rbp)
	vmovsd	-528(%rbp), %xmm0               ## xmm0 = mem[0],zero
	vmulsd	-168(%rbp), %xmm0, %xmm0
	vmovsd	-400(%rbp), %xmm1               ## xmm1 = mem[0],zero
	vsubsd	%xmm0, %xmm1, %xmm0
	vmovsd	%xmm0, -400(%rbp)
	vmovsd	-544(%rbp), %xmm0               ## xmm0 = mem[0],zero
	vmulsd	-176(%rbp), %xmm0, %xmm0
	vmovsd	-400(%rbp), %xmm1               ## xmm1 = mem[0],zero
	vsubsd	%xmm0, %xmm1, %xmm0
	vmovsd	%xmm0, -400(%rbp)
	vmovsd	-560(%rbp), %xmm0               ## xmm0 = mem[0],zero
	vmulsd	-184(%rbp), %xmm0, %xmm0
	vmovsd	-400(%rbp), %xmm1               ## xmm1 = mem[0],zero
	vsubsd	%xmm0, %xmm1, %xmm0
	vmovsd	%xmm0, -400(%rbp)
	vmovsd	-576(%rbp), %xmm0               ## xmm0 = mem[0],zero
	vmulsd	-192(%rbp), %xmm0, %xmm0
	vmovsd	-400(%rbp), %xmm1               ## xmm1 = mem[0],zero
	vsubsd	%xmm0, %xmm1, %xmm0
	vmovsd	%xmm0, -400(%rbp)
	vmovsd	-400(%rbp), %xmm0               ## xmm0 = mem[0],zero
	movq	24(%rbp), %rax
	movl	32(%rbp), %ecx
	movl	-92(%rbp), %edx
	addl	$0, %edx
	imull	%edx, %ecx
	movl	-96(%rbp), %edx
	addl	$0, %edx
	addl	%edx, %ecx
	movslq	%ecx, %rsi
	vmovsd	%xmm0, (%rax,%rsi,8)
## %bb.99:                              ##   in Loop: Header=BB21_97 Depth=4
	movl	-112(%rbp), %eax
	addl	$8, %eax
	movl	%eax, -112(%rbp)
	jmp	LBB21_97
LBB21_100:                              ##   in Loop: Header=BB21_95 Depth=3
	jmp	LBB21_101
LBB21_101:                              ##   in Loop: Header=BB21_95 Depth=3
	movl	-100(%rbp), %eax
	addl	$56, %eax
	movl	%eax, -100(%rbp)
	jmp	LBB21_95
LBB21_102:                              ##   in Loop: Header=BB21_93 Depth=2
	jmp	LBB21_103
LBB21_103:                              ##   Parent Loop BB21_67 Depth=1
                                        ##     Parent Loop BB21_93 Depth=2
                                        ## =>    This Inner Loop Header: Depth=3
	movl	-100(%rbp), %eax
	cmpl	-20(%rbp), %eax
	jge	LBB21_106
## %bb.104:                             ##   in Loop: Header=BB21_103 Depth=3
	movq	24(%rbp), %rax
	movl	32(%rbp), %ecx
	imull	-92(%rbp), %ecx
	addl	-96(%rbp), %ecx
	movslq	%ecx, %rdx
	vmovsd	(%rax,%rdx,8), %xmm0            ## xmm0 = mem[0],zero
	movq	-56(%rbp), %rax
	movl	16(%rbp), %ecx
	imull	-100(%rbp), %ecx
	addl	-96(%rbp), %ecx
	movslq	%ecx, %rdx
	vmovsd	(%rax,%rdx,8), %xmm1            ## xmm1 = mem[0],zero
	movq	-40(%rbp), %rax
	movl	-44(%rbp), %ecx
	imull	-92(%rbp), %ecx
	addl	-100(%rbp), %ecx
	movslq	%ecx, %rdx
	vmulsd	(%rax,%rdx,8), %xmm1, %xmm1
	vsubsd	%xmm1, %xmm0, %xmm0
	movq	24(%rbp), %rax
	movl	32(%rbp), %ecx
	imull	-92(%rbp), %ecx
	addl	-96(%rbp), %ecx
	movslq	%ecx, %rdx
	vmovsd	%xmm0, (%rax,%rdx,8)
## %bb.105:                             ##   in Loop: Header=BB21_103 Depth=3
	movl	-100(%rbp), %eax
	addl	$1, %eax
	movl	%eax, -100(%rbp)
	jmp	LBB21_103
LBB21_106:                              ##   in Loop: Header=BB21_93 Depth=2
	jmp	LBB21_107
LBB21_107:                              ##   in Loop: Header=BB21_93 Depth=2
	movl	-96(%rbp), %eax
	addl	$1, %eax
	movl	%eax, -96(%rbp)
	jmp	LBB21_93
LBB21_108:                              ##   in Loop: Header=BB21_67 Depth=1
	jmp	LBB21_109
LBB21_109:                              ##   in Loop: Header=BB21_67 Depth=1
	movl	-92(%rbp), %eax
	addl	$1, %eax
	movl	%eax, -92(%rbp)
	jmp	LBB21_67
LBB21_110:
	addq	$584, %rsp                      ## imm = 0x248
	popq	%rbx
	popq	%rbp
	retq
	.cfi_endproc
                                        ## -- End function
	.p2align	4, 0x90                         ## -- Begin function dgetrs_2
_dgetrs_2:                              ## @dgetrs_2
	.cfi_startproc
## %bb.0:
	pushq	%rbp
	.cfi_def_cfa_offset 16
	.cfi_offset %rbp, -16
	movq	%rsp, %rbp
	.cfi_def_cfa_register %rbp
	subq	$48, %rsp
	xorl	%eax, %eax
	movl	%edi, -4(%rbp)
	movq	%rsi, -16(%rbp)
	movq	%rdx, -24(%rbp)
	movq	%rcx, -32(%rbp)
	movq	-32(%rbp), %rsi
	movl	-4(%rbp), %r8d
	movq	-24(%rbp), %r9
	movl	$1, %edi
	movl	%edi, -36(%rbp)                 ## 4-byte Spill
	movl	-36(%rbp), %edx                 ## 4-byte Reload
	movl	%eax, %ecx
	movl	$1, (%rsp)
	callq	_dlaswp_2
	movl	-4(%rbp), %edi
	movq	-16(%rbp), %rdx
	movl	-4(%rbp), %ecx
	movq	-32(%rbp), %r8
	movl	$1, %eax
	movl	%eax, %esi
	movl	%eax, %r9d
	callq	_dtrsm_L_2
	movl	-4(%rbp), %edi
	movq	-16(%rbp), %rdx
	movl	-4(%rbp), %ecx
	movq	-32(%rbp), %r8
	movl	$1, %eax
	movl	%eax, %esi
	movl	%eax, %r9d
	callq	_dtrsm_U_2
	xorl	%eax, %eax
	addq	$48, %rsp
	popq	%rbp
	retq
	.cfi_endproc
                                        ## -- End function
	.globl	_dgemm_5                        ## -- Begin function dgemm_5
	.p2align	4, 0x90
_dgemm_5:                               ## @dgemm_5
	.cfi_startproc
## %bb.0:
	pushq	%rbp
	.cfi_def_cfa_offset 16
	.cfi_offset %rbp, -16
	movq	%rsp, %rbp
	.cfi_def_cfa_register %rbp
	subq	$144, %rsp
	movl	32(%rbp), %eax
	movq	24(%rbp), %r10
	movl	16(%rbp), %r11d
	movl	%edi, -4(%rbp)
	movl	%esi, -8(%rbp)
	movl	%edx, -12(%rbp)
	vmovsd	%xmm0, -24(%rbp)
	movq	%rcx, -32(%rbp)
	movl	%r8d, -36(%rbp)
	movq	%r9, -48(%rbp)
	vmovsd	%xmm1, -56(%rbp)
	movq	_scratch_a(%rip), %rcx
	movq	%rcx, -64(%rbp)
	movq	_scratch_b(%rip), %rcx
	movq	%rcx, -72(%rbp)
	movl	$0, -80(%rbp)
LBB23_1:                                ## =>This Loop Header: Depth=1
                                        ##     Child Loop BB23_6 Depth 2
                                        ##       Child Loop BB23_11 Depth 3
	movl	-80(%rbp), %eax
	cmpl	-8(%rbp), %eax
	jge	LBB23_21
## %bb.2:                               ##   in Loop: Header=BB23_1 Depth=1
	movl	-8(%rbp), %eax
	subl	-80(%rbp), %eax
	cmpl	$2048, %eax                     ## imm = 0x800
	jge	LBB23_4
## %bb.3:                               ##   in Loop: Header=BB23_1 Depth=1
	movl	-8(%rbp), %eax
	subl	-80(%rbp), %eax
	movl	%eax, -100(%rbp)                ## 4-byte Spill
	jmp	LBB23_5
LBB23_4:                                ##   in Loop: Header=BB23_1 Depth=1
	movl	$2048, %eax                     ## imm = 0x800
	movl	%eax, -100(%rbp)                ## 4-byte Spill
	jmp	LBB23_5
LBB23_5:                                ##   in Loop: Header=BB23_1 Depth=1
	movl	-100(%rbp), %eax                ## 4-byte Reload
	movl	%eax, -92(%rbp)
	movl	$0, -84(%rbp)
LBB23_6:                                ##   Parent Loop BB23_1 Depth=1
                                        ## =>  This Loop Header: Depth=2
                                        ##       Child Loop BB23_11 Depth 3
	movl	-84(%rbp), %eax
	cmpl	-12(%rbp), %eax
	jge	LBB23_19
## %bb.7:                               ##   in Loop: Header=BB23_6 Depth=2
	movl	-12(%rbp), %eax
	subl	-84(%rbp), %eax
	cmpl	$384, %eax                      ## imm = 0x180
	jge	LBB23_9
## %bb.8:                               ##   in Loop: Header=BB23_6 Depth=2
	movl	-12(%rbp), %eax
	subl	-84(%rbp), %eax
	movl	%eax, -104(%rbp)                ## 4-byte Spill
	jmp	LBB23_10
LBB23_9:                                ##   in Loop: Header=BB23_6 Depth=2
	movl	$384, %eax                      ## imm = 0x180
	movl	%eax, -104(%rbp)                ## 4-byte Spill
	jmp	LBB23_10
LBB23_10:                               ##   in Loop: Header=BB23_6 Depth=2
	movl	-104(%rbp), %eax                ## 4-byte Reload
	movl	%eax, -96(%rbp)
	movq	-72(%rbp), %rdi
	movq	-48(%rbp), %rcx
	movl	16(%rbp), %eax
	imull	-80(%rbp), %eax
	addl	-84(%rbp), %eax
	movslq	%eax, %rdx
	shlq	$3, %rdx
	addq	%rdx, %rcx
	movl	16(%rbp), %edx
	movl	-96(%rbp), %eax
	movl	-92(%rbp), %r8d
	movq	%rcx, %rsi
	movl	%eax, %ecx
	callq	_pack_b
	movl	$0, -76(%rbp)
LBB23_11:                               ##   Parent Loop BB23_1 Depth=1
                                        ##     Parent Loop BB23_6 Depth=2
                                        ## =>    This Inner Loop Header: Depth=3
	movl	-76(%rbp), %eax
	cmpl	-4(%rbp), %eax
	jge	LBB23_17
## %bb.12:                              ##   in Loop: Header=BB23_11 Depth=3
	movl	-4(%rbp), %eax
	subl	-76(%rbp), %eax
	cmpl	$192, %eax
	jge	LBB23_14
## %bb.13:                              ##   in Loop: Header=BB23_11 Depth=3
	movl	-4(%rbp), %eax
	subl	-76(%rbp), %eax
	movl	%eax, -108(%rbp)                ## 4-byte Spill
	jmp	LBB23_15
LBB23_14:                               ##   in Loop: Header=BB23_11 Depth=3
	movl	$192, %eax
	movl	%eax, -108(%rbp)                ## 4-byte Spill
	jmp	LBB23_15
LBB23_15:                               ##   in Loop: Header=BB23_11 Depth=3
	movl	-108(%rbp), %eax                ## 4-byte Reload
	movl	%eax, -88(%rbp)
	movq	-64(%rbp), %rdi
	movq	-32(%rbp), %rcx
	movl	-36(%rbp), %eax
	imull	-84(%rbp), %eax
	addl	-76(%rbp), %eax
	movslq	%eax, %rdx
	shlq	$3, %rdx
	addq	%rdx, %rcx
	movl	-36(%rbp), %edx
	movl	-88(%rbp), %eax
	movl	-96(%rbp), %r8d
	movq	%rcx, %rsi
	movl	%eax, %ecx
	callq	_pack_a
	movl	-88(%rbp), %edi
	movl	-92(%rbp), %esi
	movl	-96(%rbp), %edx
	movq	-64(%rbp), %rcx
	movq	-72(%rbp), %r9
	movq	24(%rbp), %r10
	movl	32(%rbp), %eax
	imull	-80(%rbp), %eax
	addl	-76(%rbp), %eax
	movslq	%eax, %r11
	shlq	$3, %r11
	addq	%r11, %r10
	movl	32(%rbp), %eax
	movl	$4293967296, %r8d               ## imm = 0xFFF0BDC0
	movl	$-1000000, (%rsp)               ## imm = 0xFFF0BDC0
	movq	%r10, 8(%rsp)
	movl	%eax, 16(%rsp)
	callq	_dgemm_5_mini
## %bb.16:                              ##   in Loop: Header=BB23_11 Depth=3
	movl	-88(%rbp), %eax
	addl	-76(%rbp), %eax
	movl	%eax, -76(%rbp)
	jmp	LBB23_11
LBB23_17:                               ##   in Loop: Header=BB23_6 Depth=2
	jmp	LBB23_18
LBB23_18:                               ##   in Loop: Header=BB23_6 Depth=2
	movl	-96(%rbp), %eax
	addl	-84(%rbp), %eax
	movl	%eax, -84(%rbp)
	jmp	LBB23_6
LBB23_19:                               ##   in Loop: Header=BB23_1 Depth=1
	jmp	LBB23_20
LBB23_20:                               ##   in Loop: Header=BB23_1 Depth=1
	movl	-92(%rbp), %eax
	addl	-80(%rbp), %eax
	movl	%eax, -80(%rbp)
	jmp	LBB23_1
LBB23_21:
	addq	$144, %rsp
	popq	%rbp
	retq
	.cfi_endproc
                                        ## -- End function
	.p2align	4, 0x90                         ## -- Begin function pack_b
_pack_b:                                ## @pack_b
	.cfi_startproc
## %bb.0:
	pushq	%rbp
	.cfi_def_cfa_offset 16
	.cfi_offset %rbp, -16
	movq	%rsp, %rbp
	.cfi_def_cfa_register %rbp
	movq	%rdi, -8(%rbp)
	movq	%rsi, -16(%rbp)
	movl	%edx, -20(%rbp)
	movl	%ecx, -24(%rbp)
	movl	%r8d, -28(%rbp)
	movl	$0, -36(%rbp)
LBB24_1:                                ## =>This Loop Header: Depth=1
                                        ##     Child Loop BB24_3 Depth 2
	movl	-36(%rbp), %eax
	movl	-28(%rbp), %ecx
	subl	$3, %ecx
	cmpl	%ecx, %eax
	jge	LBB24_8
## %bb.2:                               ##   in Loop: Header=BB24_1 Depth=1
	movq	-16(%rbp), %rax
	movl	-36(%rbp), %ecx
	imull	-20(%rbp), %ecx
	movslq	%ecx, %rdx
	shlq	$3, %rdx
	addq	%rdx, %rax
	movq	%rax, -48(%rbp)
	movq	-48(%rbp), %rax
	movslq	-20(%rbp), %rdx
	shlq	$3, %rdx
	addq	%rdx, %rax
	movq	%rax, -56(%rbp)
	movq	-56(%rbp), %rax
	movslq	-20(%rbp), %rdx
	shlq	$3, %rdx
	addq	%rdx, %rax
	movq	%rax, -64(%rbp)
	movq	-64(%rbp), %rax
	movslq	-20(%rbp), %rdx
	shlq	$3, %rdx
	addq	%rdx, %rax
	movq	%rax, -72(%rbp)
	movl	$0, -32(%rbp)
LBB24_3:                                ##   Parent Loop BB24_1 Depth=1
                                        ## =>  This Inner Loop Header: Depth=2
	movl	-32(%rbp), %eax
	cmpl	-24(%rbp), %eax
	jge	LBB24_6
## %bb.4:                               ##   in Loop: Header=BB24_3 Depth=2
	movq	-48(%rbp), %rax
	movq	%rax, %rcx
	addq	$8, %rcx
	movq	%rcx, -48(%rbp)
	vmovsd	(%rax), %xmm0                   ## xmm0 = mem[0],zero
	movq	-8(%rbp), %rax
	movq	%rax, %rcx
	addq	$8, %rcx
	movq	%rcx, -8(%rbp)
	vmovsd	%xmm0, (%rax)
	movq	-56(%rbp), %rax
	movq	%rax, %rcx
	addq	$8, %rcx
	movq	%rcx, -56(%rbp)
	vmovsd	(%rax), %xmm0                   ## xmm0 = mem[0],zero
	movq	-8(%rbp), %rax
	movq	%rax, %rcx
	addq	$8, %rcx
	movq	%rcx, -8(%rbp)
	vmovsd	%xmm0, (%rax)
	movq	-64(%rbp), %rax
	movq	%rax, %rcx
	addq	$8, %rcx
	movq	%rcx, -64(%rbp)
	vmovsd	(%rax), %xmm0                   ## xmm0 = mem[0],zero
	movq	-8(%rbp), %rax
	movq	%rax, %rcx
	addq	$8, %rcx
	movq	%rcx, -8(%rbp)
	vmovsd	%xmm0, (%rax)
	movq	-72(%rbp), %rax
	movq	%rax, %rcx
	addq	$8, %rcx
	movq	%rcx, -72(%rbp)
	vmovsd	(%rax), %xmm0                   ## xmm0 = mem[0],zero
	movq	-8(%rbp), %rax
	movq	%rax, %rcx
	addq	$8, %rcx
	movq	%rcx, -8(%rbp)
	vmovsd	%xmm0, (%rax)
## %bb.5:                               ##   in Loop: Header=BB24_3 Depth=2
	movl	-32(%rbp), %eax
	addl	$1, %eax
	movl	%eax, -32(%rbp)
	jmp	LBB24_3
LBB24_6:                                ##   in Loop: Header=BB24_1 Depth=1
	jmp	LBB24_7
LBB24_7:                                ##   in Loop: Header=BB24_1 Depth=1
	movl	-36(%rbp), %eax
	addl	$4, %eax
	movl	%eax, -36(%rbp)
	jmp	LBB24_1
LBB24_8:
	jmp	LBB24_9
LBB24_9:                                ## =>This Loop Header: Depth=1
